   1               		.file	"last.c"
   2               	__SREG__ = 0x3f
   3               	__SP_H__ = 0x3e
   4               	__SP_L__ = 0x3d
   5               	__CCP__  = 0x34
   6               	__tmp_reg__ = 0
   7               	__zero_reg__ = 1
  15               	.Ltext0:
  16               	.global	LCD_Command
  18               	LCD_Command:
  19               	.LFB7:
  20               	.LM1:
  21               	.LVL0:
  22               	/* prologue: function */
  23               	/* frame size = 0 */
  24               	.LM2:
  25 0000 88BB      		out 56-32,r24
  26               	.LM3:
  27 0002 85B3      		in r24,53-32
  28               	.LVL1:
  29 0004 8C7F      		andi r24,lo8(-4)
  30 0006 85BB      		out 53-32,r24
  31               	.LM4:
  32 0008 AA9A      		sbi 53-32,2
  33               	.LBB100:
  34               	.LBB101:
  35               	.LBB102:
  36               	.LBB103:
  37               	.LM5:
  38 000a 82E0      		ldi r24,lo8(2)
  39               	.LVL2:
  40               	/* #APP */
  41               	 ;  83 "c:/winavr-20100110/lib/gcc/../../avr/include/util/delay_basic.h" 1
  42 000c 8A95      		1: dec r24
  43 000e 01F4      		brne 1b
  44               	 ;  0 "" 2
  45               	/* #NOAPP */
  46               	.LBE103:
  47               	.LBE102:
  48               	.LBE101:
  49               	.LBE100:
  50               	.LM6:
  51 0010 AA98      		cbi 53-32,2
  52               	.LBB104:
  53               	.LBB105:
  54               	.LBB106:
  55               	.LBB107:
  56               	.LM7:
  57 0012 80E7      		ldi r24,lo8(6000)
  58 0014 97E1      		ldi r25,hi8(6000)
  59               	.LVL3:
  60               	/* #APP */
  61               	 ;  105 "c:/winavr-20100110/lib/gcc/../../avr/include/util/delay_basic.h" 1
  62 0016 0197      		1: sbiw r24,1
  63 0018 01F4      		brne 1b
  64               	 ;  0 "" 2
  65               	/* epilogue start */
  66               	/* #NOAPP */
  67               	.LBE107:
  68               	.LBE106:
  69               	.LBE105:
  70               	.LBE104:
  71               	.LM8:
  72 001a 0895      		ret
  73               	.LFE7:
  75               	.global	LCD_Char
  77               	LCD_Char:
  78               	.LFB8:
  79               	.LM9:
  80               	.LVL4:
  81               	/* prologue: function */
  82               	/* frame size = 0 */
  83               	.LM10:
  84 001c 88BB      		out 56-32,r24
  85               	.LM11:
  86 001e A998      		cbi 53-32,1
  87               	.LM12:
  88 0020 85B3      		in r24,53-32
  89               	.LVL5:
  90 0022 8560      		ori r24,lo8(5)
  91 0024 85BB      		out 53-32,r24
  92               	.LBB108:
  93               	.LBB109:
  94               	.LBB110:
  95               	.LBB111:
  96               	.LM13:
  97 0026 82E0      		ldi r24,lo8(2)
  98               	.LVL6:
  99               	/* #APP */
 100               	 ;  83 "c:/winavr-20100110/lib/gcc/../../avr/include/util/delay_basic.h" 1
 101 0028 8A95      		1: dec r24
 102 002a 01F4      		brne 1b
 103               	 ;  0 "" 2
 104               	/* #NOAPP */
 105               	.LBE111:
 106               	.LBE110:
 107               	.LBE109:
 108               	.LBE108:
 109               	.LM14:
 110 002c AA98      		cbi 53-32,2
 111               	.LBB112:
 112               	.LBB113:
 113               	.LBB114:
 114               	.LBB115:
 115               	.LM15:
 116 002e 80ED      		ldi r24,lo8(2000)
 117 0030 97E0      		ldi r25,hi8(2000)
 118               	.LVL7:
 119               	/* #APP */
 120               	 ;  105 "c:/winavr-20100110/lib/gcc/../../avr/include/util/delay_basic.h" 1
 121 0032 0197      		1: sbiw r24,1
 122 0034 01F4      		brne 1b
 123               	 ;  0 "" 2
 124               	/* epilogue start */
 125               	/* #NOAPP */
 126               	.LBE115:
 127               	.LBE114:
 128               	.LBE113:
 129               	.LBE112:
 130               	.LM16:
 131 0036 0895      		ret
 132               	.LFE8:
 134               	.global	LCD_Init
 136               	LCD_Init:
 137               	.LFB9:
 138               	.LM17:
 139               	/* prologue: function */
 140               	/* frame size = 0 */
 141               	.LM18:
 142 0038 84B3      		in r24,52-32
 143 003a 8760      		ori r24,lo8(7)
 144 003c 84BB      		out 52-32,r24
 145               	.LM19:
 146 003e 8FEF      		ldi r24,lo8(-1)
 147 0040 87BB      		out 55-32,r24
 148               	.LBB116:
 149               	.LBB117:
 150               	.LBB118:
 151               	.LBB119:
 152               	.LM20:
 153 0042 80E4      		ldi r24,lo8(-25536)
 154 0044 9CE9      		ldi r25,hi8(-25536)
 155               	.LVL8:
 156               	/* #APP */
 157               	 ;  105 "c:/winavr-20100110/lib/gcc/../../avr/include/util/delay_basic.h" 1
 158 0046 0197      		1: sbiw r24,1
 159 0048 01F4      		brne 1b
 160               	 ;  0 "" 2
 161               	/* #NOAPP */
 162               	.LBE119:
 163               	.LBE118:
 164               	.LBE117:
 165               	.LBE116:
 166               	.LM21:
 167 004a 88E3      		ldi r24,lo8(56)
 168               	.LVL9:
 169 004c 0E94 0000 		call LCD_Command
 170               	.LM22:
 171 0050 8CE0      		ldi r24,lo8(12)
 172 0052 0E94 0000 		call LCD_Command
 173               	.LM23:
 174 0056 86E0      		ldi r24,lo8(6)
 175 0058 0E94 0000 		call LCD_Command
 176               	.LM24:
 177 005c 81E0      		ldi r24,lo8(1)
 178 005e 0E94 0000 		call LCD_Command
 179               	.LM25:
 180 0062 80E8      		ldi r24,lo8(-128)
 181 0064 0E94 0000 		call LCD_Command
 182               	/* epilogue start */
 183               	.LM26:
 184 0068 0895      		ret
 185               	.LFE9:
 187               	.global	LCD_String
 189               	LCD_String:
 190               	.LFB10:
 191               	.LM27:
 192               	.LVL10:
 193 006a CF93      		push r28
 194 006c DF93      		push r29
 195               	/* prologue: function */
 196               	/* frame size = 0 */
 197               	.LM28:
 198 006e EC01      		movw r28,r24
 199               	.LVL11:
 200 0070 00C0      		rjmp .L8
 201               	.L9:
 202               	.LM29:
 203 0072 0E94 0000 		call LCD_Char
 204               	.L8:
 205               	.LM30:
 206 0076 8991      		ld r24,Y+
 207 0078 8823      		tst r24
 208 007a 01F4      		brne .L9
 209               	/* epilogue start */
 210               	.LM31:
 211 007c DF91      		pop r29
 212 007e CF91      		pop r28
 213 0080 0895      		ret
 214               	.LFE10:
 216               	.global	LCD_String_xy
 218               	LCD_String_xy:
 219               	.LFB11:
 220               	.LM32:
 221               	.LVL12:
 222 0082 CF93      		push r28
 223 0084 DF93      		push r29
 224               	/* prologue: function */
 225               	/* frame size = 0 */
 226 0086 EA01      		movw r28,r20
 227               	.LM33:
 228 0088 8130      		cpi r24,lo8(1)
 229 008a 01F4      		brne .L12
 230               	.LVL13:
 231               	.LM34:
 232 008c 6F70      		andi r22,lo8(15)
 233               	.LVL14:
 234 008e 862F      		mov r24,r22
 235               	.LVL15:
 236 0090 8068      		ori r24,lo8(-128)
 237 0092 00C0      		rjmp .L17
 238               	.LVL16:
 239               	.L12:
 240               	.LM35:
 241 0094 8230      		cpi r24,lo8(2)
 242 0096 01F4      		brne .L14
 243               	.LM36:
 244 0098 6F70      		andi r22,lo8(15)
 245               	.LVL17:
 246 009a 862F      		mov r24,r22
 247               	.LVL18:
 248 009c 806C      		ori r24,lo8(-64)
 249 009e 00C0      		rjmp .L17
 250               	.LVL19:
 251               	.L14:
 252               	.LM37:
 253 00a0 8330      		cpi r24,lo8(3)
 254 00a2 01F4      		brne .L15
 255               	.LM38:
 256 00a4 6B70      		andi r22,lo8(11)
 257               	.LVL20:
 258 00a6 862F      		mov r24,r22
 259               	.LVL21:
 260 00a8 8469      		ori r24,lo8(-108)
 261 00aa 00C0      		rjmp .L17
 262               	.LVL22:
 263               	.L15:
 264               	.LM39:
 265 00ac 8430      		cpi r24,lo8(4)
 266 00ae 01F4      		brne .L13
 267               	.LM40:
 268 00b0 6B70      		andi r22,lo8(11)
 269               	.LVL23:
 270 00b2 862F      		mov r24,r22
 271               	.LVL24:
 272 00b4 846D      		ori r24,lo8(-44)
 273               	.L17:
 274 00b6 0E94 0000 		call LCD_Command
 275               	.LVL25:
 276               	.L13:
 277               	.LM41:
 278 00ba CE01      		movw r24,r28
 279               	.LVL26:
 280 00bc 0E94 0000 		call LCD_String
 281               	.LVL27:
 282               	/* epilogue start */
 283               	.LM42:
 284 00c0 DF91      		pop r29
 285 00c2 CF91      		pop r28
 286               	.LVL28:
 287 00c4 0895      		ret
 288               	.LFE11:
 290               	.global	LCD_Clear
 292               	LCD_Clear:
 293               	.LFB12:
 294               	.LM43:
 295               	/* prologue: function */
 296               	/* frame size = 0 */
 297               	.LM44:
 298 00c6 81E0      		ldi r24,lo8(1)
 299 00c8 0E94 0000 		call LCD_Command
 300               	.LM45:
 301 00cc 80E8      		ldi r24,lo8(-128)
 302 00ce 0E94 0000 		call LCD_Command
 303               	/* epilogue start */
 304               	.LM46:
 305 00d2 0895      		ret
 306               	.LFE12:
 308               	.global	UART_Init
 310               	UART_Init:
 311               	.LFB13:
 312               	.LM47:
 313               	.LVL29:
 314               	/* prologue: function */
 315               	/* frame size = 0 */
 316 00d4 9B01      		movw r18,r22
 317 00d6 AC01      		movw r20,r24
 318               	.LM48:
 319 00d8 8AB1      		in r24,42-32
 320 00da 8869      		ori r24,lo8(-104)
 321 00dc 8AB9      		out 42-32,r24
 322               	.LM49:
 323 00de 80B5      		in r24,64-32
 324 00e0 8668      		ori r24,lo8(-122)
 325 00e2 80BD      		out 64-32,r24
 326               	.LM50:
 327 00e4 64E0      		ldi r22,4
 328 00e6 220F      	1:	lsl r18
 329 00e8 331F      		rol r19
 330 00ea 441F      		rol r20
 331 00ec 551F      		rol r21
 332 00ee 6A95      		dec r22
 333 00f0 01F4      		brne 1b
 334               	.LVL30:
 335 00f2 60E0      		ldi r22,lo8(8000000)
 336 00f4 72E1      		ldi r23,hi8(8000000)
 337 00f6 8AE7      		ldi r24,hlo8(8000000)
 338 00f8 90E0      		ldi r25,hhi8(8000000)
 339 00fa 0E94 0000 		call __udivmodsi4
 340               	.LVL31:
 341 00fe C901      		movw r24,r18
 342 0100 DA01      		movw r26,r20
 343 0102 2150      		subi r18,lo8(-(-1))
 344 0104 29B9      		out 41-32,r18
 345               	.LM51:
 346 0106 0197      		sbiw r24,1
 347 0108 A109      		sbc r26,__zero_reg__
 348 010a B109      		sbc r27,__zero_reg__
 349 010c 892F      		mov r24,r25
 350 010e 9A2F      		mov r25,r26
 351 0110 AB2F      		mov r26,r27
 352 0112 BB27      		clr r27
 353 0114 80BD      		out 64-32,r24
 354               	/* epilogue start */
 355               	.LM52:
 356 0116 0895      		ret
 357               	.LFE13:
 359               	.global	UART_RxChar
 361               	UART_RxChar:
 362               	.LFB14:
 363               	.LM53:
 364               	/* prologue: function */
 365               	/* frame size = 0 */
 366               	.L23:
 367               	.LM54:
 368 0118 5F9B      		sbis 43-32,7
 369 011a 00C0      		rjmp .L23
 370               	.LM55:
 371 011c 8CB1      		in r24,44-32
 372               	/* epilogue start */
 373               	.LM56:
 374 011e 0895      		ret
 375               	.LFE14:
 377               	.global	UART_TxChar
 379               	UART_TxChar:
 380               	.LFB15:
 381               	.LM57:
 382               	.LVL32:
 383               	/* prologue: function */
 384               	/* frame size = 0 */
 385               	.LM58:
 386 0120 8CB9      		out 44-32,r24
 387               	.L27:
 388               	.LM59:
 389 0122 5D9B      		sbis 43-32,5
 390 0124 00C0      		rjmp .L27
 391               	/* epilogue start */
 392               	.LM60:
 393 0126 0895      		ret
 394               	.LFE15:
 396               	.global	USART_SendString
 398               	USART_SendString:
 399               	.LFB16:
 400               	.LM61:
 401               	.LVL33:
 402               	/* prologue: function */
 403               	/* frame size = 0 */
 404               	.LM62:
 405 0128 FC01      		movw r30,r24
 406               	.LVL34:
 407 012a 00C0      		rjmp .L31
 408               	.L33:
 409               	.LBB120:
 410               	.LBB121:
 411               	.LM63:
 412 012c 8CB9      		out 44-32,r24
 413               	.L32:
 414               	.LM64:
 415 012e 5D9B      		sbis 43-32,5
 416 0130 00C0      		rjmp .L32
 417 0132 3196      		adiw r30,1
 418               	.L31:
 419               	.LBE121:
 420               	.LBE120:
 421               	.LM65:
 422 0134 8081      		ld r24,Z
 423 0136 8823      		tst r24
 424 0138 01F4      		brne .L33
 425               	/* epilogue start */
 426               	.LM66:
 427 013a 0895      		ret
 428               	.LFE16:
 430               	.global	__vector_13
 432               	__vector_13:
 433               	.LFB42:
 434               	.LM67:
 435 013c 1F92      		push __zero_reg__
 436 013e 0F92      		push r0
 437 0140 0FB6      		in r0,__SREG__
 438 0142 0F92      		push r0
 439 0144 1124      		clr __zero_reg__
 440 0146 2F93      		push r18
 441 0148 3F93      		push r19
 442 014a 4F93      		push r20
 443 014c 5F93      		push r21
 444 014e 8F93      		push r24
 445 0150 9F93      		push r25
 446 0152 EF93      		push r30
 447 0154 FF93      		push r31
 448               	/* prologue: Signal */
 449               	/* frame size = 0 */
 450               	.LM68:
 451 0156 5FB7      		in r21,__SREG__
 452               	.LVL35:
 453               	.LM69:
 454               	/* #APP */
 455               	 ;  464 "last.c" 1
 456 0158 F894      		cli
 457               	 ;  0 "" 2
 458               	.LM70:
 459               	/* #NOAPP */
 460 015a 4CB1      		in r20,44-32
 461               	.LVL36:
 462               	.LM71:
 463 015c 8091 0000 		lds r24,Counter
 464 0160 9091 0000 		lds r25,(Counter)+1
 465 0164 FC01      		movw r30,r24
 466 0166 E050      		subi r30,lo8(-(RESPONSE_BUFFER))
 467 0168 F040      		sbci r31,hi8(-(RESPONSE_BUFFER))
 468 016a 4083      		st Z,r20
 469               	.LM72:
 470 016c 0196      		adiw r24,1
 471 016e 9093 0000 		sts (Counter)+1,r25
 472 0172 8093 0000 		sts Counter,r24
 473               	.LM73:
 474 0176 883C      		cpi r24,200
 475 0178 9105      		cpc r25,__zero_reg__
 476 017a 01F4      		brne .L37
 477               	.LM74:
 478 017c 1092 0000 		sts (Counter)+1,__zero_reg__
 479 0180 1092 0000 		sts Counter,__zero_reg__
 480               	.L37:
 481               	.LM75:
 482 0184 4432      		cpi r20,lo8(36)
 483 0186 01F4      		brne .L38
 484               	.LM76:
 485 0188 1092 0000 		sts (GGA_Index)+1,__zero_reg__
 486 018c 1092 0000 		sts GGA_Index,__zero_reg__
 487               	.LM77:
 488 0190 1092 0000 		sts (CommaCounter)+1,__zero_reg__
 489 0194 1092 0000 		sts CommaCounter,__zero_reg__
 490               	.LM78:
 491 0198 1092 0000 		sts IsItGGAString,__zero_reg__
 492 019c 00C0      		rjmp .L39
 493               	.L38:
 494               	.LM79:
 495 019e 8091 0000 		lds r24,IsItGGAString
 496 01a2 8823      		tst r24
 497 01a4 01F0      		breq .L40
 498               	.LM80:
 499 01a6 4C32      		cpi r20,lo8(44)
 500 01a8 01F4      		brne .L41
 501 01aa 8091 0000 		lds r24,CommaCounter
 502 01ae 9091 0000 		lds r25,(CommaCounter)+1
 503 01b2 2091 0000 		lds r18,GGA_Index
 504 01b6 3091 0000 		lds r19,(GGA_Index)+1
 505 01ba FC01      		movw r30,r24
 506 01bc E050      		subi r30,lo8(-(GGA_Pointers))
 507 01be F040      		sbci r31,hi8(-(GGA_Pointers))
 508 01c0 2083      		st Z,r18
 509 01c2 0196      		adiw r24,1
 510 01c4 9093 0000 		sts (CommaCounter)+1,r25
 511 01c8 8093 0000 		sts CommaCounter,r24
 512               	.L41:
 513               	.LM81:
 514 01cc 8091 0000 		lds r24,GGA_Index
 515 01d0 9091 0000 		lds r25,(GGA_Index)+1
 516 01d4 FC01      		movw r30,r24
 517 01d6 E050      		subi r30,lo8(-(GGA_Buffer))
 518 01d8 F040      		sbci r31,hi8(-(GGA_Buffer))
 519 01da 4083      		st Z,r20
 520 01dc 0196      		adiw r24,1
 521 01de 9093 0000 		sts (GGA_Index)+1,r25
 522 01e2 8093 0000 		sts GGA_Index,r24
 523 01e6 00C0      		rjmp .L39
 524               	.L40:
 525               	.LM82:
 526 01e8 8091 0000 		lds r24,GGA_CODE
 527 01ec 8734      		cpi r24,lo8(71)
 528 01ee 01F4      		brne .L42
 529 01f0 8091 0000 		lds r24,GGA_CODE+1
 530 01f4 8734      		cpi r24,lo8(71)
 531 01f6 01F4      		brne .L42
 532 01f8 8091 0000 		lds r24,GGA_CODE+2
 533 01fc 8134      		cpi r24,lo8(65)
 534 01fe 01F4      		brne .L42
 535               	.LM83:
 536 0200 81E0      		ldi r24,lo8(1)
 537 0202 8093 0000 		sts IsItGGAString,r24
 538               	.LM84:
 539 0206 1092 0000 		sts GGA_CODE,__zero_reg__
 540               	.LM85:
 541 020a 1092 0000 		sts GGA_CODE+1,__zero_reg__
 542               	.LM86:
 543 020e 1092 0000 		sts GGA_CODE+2,__zero_reg__
 544 0212 00C0      		rjmp .L39
 545               	.L42:
 546               	.LM87:
 547 0214 8091 0000 		lds r24,GGA_CODE+1
 548 0218 8093 0000 		sts GGA_CODE,r24
 549               	.LM88:
 550 021c 8091 0000 		lds r24,GGA_CODE+2
 551 0220 8093 0000 		sts GGA_CODE+1,r24
 552               	.LM89:
 553 0224 4093 0000 		sts GGA_CODE+2,r20
 554               	.L39:
 555               	.LM90:
 556 0228 5FBF      		out __SREG__,r21
 557               	/* epilogue start */
 558               	.LM91:
 559 022a FF91      		pop r31
 560 022c EF91      		pop r30
 561 022e 9F91      		pop r25
 562 0230 8F91      		pop r24
 563 0232 5F91      		pop r21
 564               	.LVL37:
 565 0234 4F91      		pop r20
 566               	.LVL38:
 567 0236 3F91      		pop r19
 568 0238 2F91      		pop r18
 569 023a 0F90      		pop r0
 570 023c 0FBE      		out __SREG__,r0
 571 023e 0F90      		pop r0
 572 0240 1F90      		pop __zero_reg__
 573 0242 1895      		reti
 574               	.LFE42:
 576               	.global	Buffer_Flush
 578               	Buffer_Flush:
 579               	.LFB22:
 580               	.LM92:
 581               	/* prologue: function */
 582               	/* frame size = 0 */
 583               	.LM93:
 584 0244 88EC      		ldi r24,lo8(-56)
 585 0246 E0E0      		ldi r30,lo8(RESPONSE_BUFFER)
 586 0248 F0E0      		ldi r31,hi8(RESPONSE_BUFFER)
 587 024a DF01      		movw r26,r30
 588 024c 1D92      		st X+,__zero_reg__
 589 024e 8A95      	        dec r24
 590 0250 01F4      		brne .-6
 591               	.LM94:
 592 0252 1092 0000 		sts (Counter)+1,__zero_reg__
 593 0256 1092 0000 		sts Counter,__zero_reg__
 594               	/* epilogue start */
 595               	.LM95:
 596 025a 0895      		ret
 597               	.LFE22:
 599               		.data
 600               	.LC0:
 601 0000 0D0A 4F4B 		.string	"\r\nOK\r\n"
 601      0D0A 00
 602               		.text
 603               	.global	GetResponseBody
 605               	GetResponseBody:
 606               	.LFB23:
 607               	.LM96:
 608               	.LVL39:
 609 025c CF92      		push r12
 610 025e DF92      		push r13
 611 0260 EF92      		push r14
 612 0262 FF92      		push r15
 613 0264 0F93      		push r16
 614 0266 1F93      		push r17
 615 0268 DF93      		push r29
 616 026a CF93      		push r28
 617 026c 00D0      		rcall .
 618 026e 00D0      		rcall .
 619 0270 0F92      		push __tmp_reg__
 620 0272 CDB7      		in r28,__SP_L__
 621 0274 DEB7      		in r29,__SP_H__
 622               	/* prologue: function */
 623               	/* frame size = 5 */
 624 0276 7C01      		movw r14,r24
 625               	.LM97:
 626 0278 7CE0      		ldi r23,lo8(12)
 627 027a C72E      		mov r12,r23
 628 027c D12C      		mov r13,__zero_reg__
 629               	.LVL40:
 630 027e 00C0      		rjmp .L47
 631               	.LVL41:
 632               	.L49:
 633               	.LM98:
 634 0280 0894      		sec
 635 0282 C11C      		adc r12,__zero_reg__
 636 0284 D11C      		adc r13,__zero_reg__
 637               	.LVL42:
 638               	.L47:
 639               	.LM99:
 640 0286 F701      		movw r30,r14
 641 0288 EC0D      		add r30,r12
 642 028a FD1D      		adc r31,r13
 643 028c 8081      		ld r24,Z
 644 028e 8D30      		cpi r24,lo8(13)
 645 0290 01F0      		breq .L48
 646 0292 84E6      		ldi r24,lo8(100)
 647 0294 C816      		cp r12,r24
 648 0296 D104      		cpc r13,__zero_reg__
 649 0298 01F4      		brne .L49
 650               	.L48:
 651               	.LM100:
 652 029a B701      		movw r22,r14
 653               	.LVL43:
 654 029c 645F      		subi r22,lo8(-(12))
 655 029e 7F4F      		sbci r23,hi8(-(12))
 656 02a0 A601      		movw r20,r12
 657 02a2 4C50      		subi r20,lo8(-(-12))
 658 02a4 5040      		sbci r21,hi8(-(-12))
 659 02a6 CE01      		movw r24,r28
 660 02a8 0196      		adiw r24,1
 661 02aa 0E94 0000 		call strncpy
 662               	.LM101:
 663 02ae C601      		movw r24,r12
 664 02b0 0296      		adiw r24,2
 665               	.LVL44:
 666               	.LM102:
 667 02b2 D701      		movw r26,r14
 668 02b4 0D90      		ld __tmp_reg__,X+
 669 02b6 0020      		tst __tmp_reg__
 670 02b8 01F4      		brne .-6
 671 02ba 8D01      		movw r16,r26
 672               	.LVL45:
 673 02bc 0150      		subi r16,lo8(-(-1))
 674 02be 1040      		sbci r17,hi8(-(-1))
 675 02c0 0E19      		sub r16,r14
 676 02c2 1F09      		sbc r17,r15
 677 02c4 081B      		sub r16,r24
 678 02c6 190B      		sbc r17,r25
 679               	.LM103:
 680 02c8 9701      		movw r18,r14
 681 02ca 280F      		add r18,r24
 682 02cc 391F      		adc r19,r25
 683 02ce C701      		movw r24,r14
 684               	.LVL46:
 685 02d0 B901      		movw r22,r18
 686 02d2 A801      		movw r20,r16
 687               	.LVL47:
 688 02d4 0E94 0000 		call memcpy
 689               	.LM104:
 690 02d8 0650      		subi r16,lo8(-(-6))
 691 02da 1040      		sbci r17,hi8(-(-6))
 692               	.LVL48:
 693 02dc 0E0D      		add r16,r14
 694 02de 1F1D      		adc r17,r15
 695               	.LVL49:
 696 02e0 C801      		movw r24,r16
 697 02e2 60E0      		ldi r22,lo8(.LC0)
 698 02e4 70E0      		ldi r23,hi8(.LC0)
 699 02e6 46E0      		ldi r20,lo8(6)
 700 02e8 50E0      		ldi r21,hi8(6)
 701 02ea 0E94 0000 		call strncmp
 702 02ee 0097      		sbiw r24,0
 703 02f0 01F4      		brne .L52
 704               	.LM105:
 705 02f2 9601      		movw r18,r12
 706               	.LVL50:
 707 02f4 285F      		subi r18,lo8(-(8))
 708 02f6 3F4F      		sbci r19,hi8(-(8))
 709 02f8 C801      		movw r24,r16
 710 02fa 60E0      		ldi r22,lo8(0)
 711 02fc 70E0      		ldi r23,hi8(0)
 712 02fe A901      		movw r20,r18
 713 0300 0E94 0000 		call memset
 714               	.L52:
 715               	/* epilogue start */
 716               	.LM106:
 717 0304 0F90      		pop __tmp_reg__
 718 0306 0F90      		pop __tmp_reg__
 719 0308 0F90      		pop __tmp_reg__
 720 030a 0F90      		pop __tmp_reg__
 721 030c 0F90      		pop __tmp_reg__
 722 030e CF91      		pop r28
 723 0310 DF91      		pop r29
 724 0312 1F91      		pop r17
 725 0314 0F91      		pop r16
 726 0316 FF90      		pop r15
 727 0318 EF90      		pop r14
 728               	.LVL51:
 729 031a DF90      		pop r13
 730 031c CF90      		pop r12
 731               	.LVL52:
 732 031e 0895      		ret
 733               	.LFE23:
 735               		.data
 736               	.LC1:
 737 0007 0D0A 00   		.string	"\r\n"
 738               		.text
 739               	.global	Read_Response
 741               	Read_Response:
 742               	.LFB20:
 743               	.LM107:
 744 0320 2F92      		push r2
 745 0322 3F92      		push r3
 746 0324 4F92      		push r4
 747 0326 5F92      		push r5
 748 0328 6F92      		push r6
 749 032a 7F92      		push r7
 750 032c 8F92      		push r8
 751 032e 9F92      		push r9
 752 0330 AF92      		push r10
 753 0332 BF92      		push r11
 754 0334 CF92      		push r12
 755 0336 DF92      		push r13
 756 0338 EF92      		push r14
 757 033a FF92      		push r15
 758 033c 0F93      		push r16
 759 033e 1F93      		push r17
 760 0340 CF93      		push r28
 761 0342 DF93      		push r29
 762               	/* prologue: function */
 763               	/* frame size = 0 */
 764               	.LM108:
 765 0344 AA24      		clr r10
 766 0346 BB24      		clr r11
 767 0348 6501      		movw r12,r10
 768               	.LVL53:
 769               	.LBB122:
 770               	.LBB123:
 771               	.LBB124:
 772               	.LBB125:
 773               	.LM109:
 774 034a E0ED      		ldi r30,lo8(2000)
 775 034c 2E2E      		mov r2,r30
 776 034e E7E0      		ldi r30,hi8(2000)
 777 0350 3E2E      		mov r3,r30
 778               	.LVL54:
 779               	.L60:
 780               	.LBE125:
 781               	.LBE124:
 782               	.LBE123:
 783               	.LBE122:
 784               	.LM110:
 785 0352 8091 0000 		lds r24,TimeOut
 786 0356 9091 0000 		lds r25,(TimeOut)+1
 787 035a A091 0000 		lds r26,(TimeOut)+2
 788 035e B091 0000 		lds r27,(TimeOut)+3
 789               	.LVL55:
 790 0362 805E      		subi r24,lo8(-(20000))
 791 0364 914B      		sbci r25,hi8(-(20000))
 792 0366 AF4F      		sbci r26,hlo8(-(20000))
 793 0368 BF4F      		sbci r27,hhi8(-(20000))
 794 036a A816      		cp r10,r24
 795 036c B906      		cpc r11,r25
 796 036e CA06      		cpc r12,r26
 797 0370 DB06      		cpc r13,r27
 798 0372 00F0      		brlo .L54
 799               	.LM111:
 800 0374 1092 0000 		sts CRLF_COUNT,__zero_reg__
 801 0378 1092 0000 		sts TimeOut,__zero_reg__
 802 037c 1092 0000 		sts (TimeOut)+1,__zero_reg__
 803 0380 1092 0000 		sts (TimeOut)+2,__zero_reg__
 804 0384 1092 0000 		sts (TimeOut)+3,__zero_reg__
 805               	.LM112:
 806 0388 82E0      		ldi r24,lo8(2)
 807 038a 00C0      		rjmp .L63
 808               	.L54:
 809               	.LM113:
 810 038c 8091 0000 		lds r24,Response_Status
 811 0390 8430      		cpi r24,lo8(4)
 812 0392 01F4      		brne .L56
 813               	.LM114:
 814 0394 1092 0000 		sts CRLF_FOUND.1823,__zero_reg__
 815               	.LM115:
 816 0398 1092 0000 		sts (CRLF_BUF.1822)+1,__zero_reg__
 817 039c 1092 0000 		sts CRLF_BUF.1822,__zero_reg__
 818               	.LM116:
 819 03a0 1092 0000 		sts Response_Status,__zero_reg__
 820               	.L56:
 821               	.LM117:
 822 03a4 E0E0      		ldi r30,lo8(RESPONSE_BUFFER)
 823 03a6 F0E0      		ldi r31,hi8(RESPONSE_BUFFER)
 824 03a8 0190      		ld __tmp_reg__,Z+
 825 03aa 0020      		tst __tmp_reg__
 826 03ac 01F4      		brne .-6
 827 03ae 3197      		sbiw r30,1
 828 03b0 E050      		subi r30,lo8(RESPONSE_BUFFER)
 829 03b2 F040      		sbci r31,hi8(RESPONSE_BUFFER)
 830 03b4 2F01      		movw r4,r30
 831 03b6 6624      		clr r6
 832 03b8 7724      		clr r7
 833               	.LM118:
 834 03ba 4114      		cp r4,__zero_reg__
 835 03bc 5104      		cpc r5,__zero_reg__
 836 03be 6104      		cpc r6,__zero_reg__
 837 03c0 7104      		cpc r7,__zero_reg__
 838 03c2 01F4      		brne .+2
 839 03c4 00C0      		rjmp .L57
 840               	.LBB129:
 841               	.LBB128:
 842               	.LBB127:
 843               	.LBB126:
 844               	.LM119:
 845 03c6 C101      		movw r24,r2
 846               	.LVL56:
 847               	/* #APP */
 848               	 ;  105 "c:/winavr-20100110/lib/gcc/../../avr/include/util/delay_basic.h" 1
 849 03c8 0197      		1: sbiw r24,1
 850 03ca 01F4      		brne 1b
 851               	 ;  0 "" 2
 852               	/* #NOAPP */
 853               	.LBE126:
 854               	.LBE127:
 855               	.LBE128:
 856               	.LBE129:
 857               	.LBB130:
 858               	.LM120:
 859 03cc 8091 0000 		lds r24,CRLF_COUNT
 860               	.LVL57:
 861 03d0 882E      		mov r8,r24
 862 03d2 9924      		clr r9
 863 03d4 82E0      		ldi r24,lo8(2)
 864 03d6 90E0      		ldi r25,hi8(2)
 865 03d8 880E      		add r8,r24
 866 03da 991E      		adc r9,r25
 867 03dc C0E0      		ldi r28,lo8(RESPONSE_BUFFER)
 868 03de D0E0      		ldi r29,hi8(RESPONSE_BUFFER)
 869 03e0 EE24      		clr r14
 870 03e2 FF24      		clr r15
 871 03e4 8701      		movw r16,r14
 872               	.L59:
 873               	.LM121:
 874 03e6 8091 0000 		lds r24,CRLF_BUF.1822+1
 875 03ea 8093 0000 		sts CRLF_BUF.1822,r24
 876               	.LM122:
 877 03ee 8881      		ld r24,Y
 878 03f0 8093 0000 		sts CRLF_BUF.1822+1,r24
 879               	.LM123:
 880 03f4 80E0      		ldi r24,lo8(CRLF_BUF.1822)
 881 03f6 90E0      		ldi r25,hi8(CRLF_BUF.1822)
 882 03f8 60E0      		ldi r22,lo8(.LC1)
 883 03fa 70E0      		ldi r23,hi8(.LC1)
 884 03fc 42E0      		ldi r20,lo8(2)
 885 03fe 50E0      		ldi r21,hi8(2)
 886 0400 0E94 0000 		call strncmp
 887 0404 0097      		sbiw r24,0
 888 0406 01F4      		brne .L58
 889               	.LM124:
 890 0408 8091 0000 		lds r24,CRLF_FOUND.1823
 891 040c 8F5F      		subi r24,lo8(-(1))
 892 040e 8093 0000 		sts CRLF_FOUND.1823,r24
 893 0412 90E0      		ldi r25,lo8(0)
 894 0414 8815      		cp r24,r8
 895 0416 9905      		cpc r25,r9
 896 0418 01F4      		brne .L58
 897               	.LM125:
 898 041a 1092 0000 		sts CRLF_COUNT,__zero_reg__
 899 041e 1092 0000 		sts TimeOut,__zero_reg__
 900 0422 1092 0000 		sts (TimeOut)+1,__zero_reg__
 901 0426 1092 0000 		sts (TimeOut)+2,__zero_reg__
 902 042a 1092 0000 		sts (TimeOut)+3,__zero_reg__
 903               	.LM126:
 904 042e 81E0      		ldi r24,lo8(1)
 905               	.L63:
 906 0430 8093 0000 		sts Response_Status,r24
 907               	/* epilogue start */
 908               	.LBE130:
 909               	.LM127:
 910 0434 DF91      		pop r29
 911 0436 CF91      		pop r28
 912 0438 1F91      		pop r17
 913 043a 0F91      		pop r16
 914 043c FF90      		pop r15
 915 043e EF90      		pop r14
 916 0440 DF90      		pop r13
 917 0442 CF90      		pop r12
 918 0444 BF90      		pop r11
 919 0446 AF90      		pop r10
 920               	.LVL58:
 921 0448 9F90      		pop r9
 922 044a 8F90      		pop r8
 923 044c 7F90      		pop r7
 924 044e 6F90      		pop r6
 925               	.LVL59:
 926 0450 5F90      		pop r5
 927 0452 4F90      		pop r4
 928               	.LVL60:
 929 0454 3F90      		pop r3
 930 0456 2F90      		pop r2
 931 0458 0895      		ret
 932               	.LVL61:
 933               	.L58:
 934               	.LBB131:
 935               	.LM128:
 936 045a 0894      		sec
 937 045c E11C      		adc r14,__zero_reg__
 938 045e F11C      		adc r15,__zero_reg__
 939 0460 011D      		adc r16,__zero_reg__
 940 0462 111D      		adc r17,__zero_reg__
 941 0464 2196      		adiw r28,1
 942               	.LM129:
 943 0466 E414      		cp r14,r4
 944 0468 F504      		cpc r15,r5
 945 046a 0605      		cpc r16,r6
 946 046c 1705      		cpc r17,r7
 947 046e 00F4      		brsh .+2
 948 0470 00C0      		rjmp .L59
 949               	.LBE131:
 950               	.LM130:
 951 0472 0894      		sec
 952 0474 A11C      		adc r10,__zero_reg__
 953 0476 B11C      		adc r11,__zero_reg__
 954 0478 C11C      		adc r12,__zero_reg__
 955 047a D11C      		adc r13,__zero_reg__
 956               	.LM131:
 957 047c 1092 0000 		sts CRLF_FOUND.1823,__zero_reg__
 958               	.L57:
 959               	.LBB132:
 960               	.LBB133:
 961               	.LBB134:
 962               	.LBB135:
 963               	.LM132:
 964 0480 C101      		movw r24,r2
 965               	.LVL62:
 966               	/* #APP */
 967               	 ;  105 "c:/winavr-20100110/lib/gcc/../../avr/include/util/delay_basic.h" 1
 968 0482 0197      		1: sbiw r24,1
 969 0484 01F4      		brne 1b
 970               	 ;  0 "" 2
 971               	/* #NOAPP */
 972               	.LBE135:
 973               	.LBE134:
 974               	.LBE133:
 975               	.LBE132:
 976               	.LM133:
 977 0486 0894      		sec
 978 0488 A11C      		adc r10,__zero_reg__
 979 048a B11C      		adc r11,__zero_reg__
 980 048c C11C      		adc r12,__zero_reg__
 981 048e D11C      		adc r13,__zero_reg__
 982 0490 00C0      		rjmp .L60
 983               	.LFE20:
 985               	.global	Start_Read_Response
 987               	Start_Read_Response:
 988               	.LFB21:
 989               	.LM134:
 990               	/* prologue: function */
 991               	/* frame size = 0 */
 992               	.LM135:
 993 0492 84E0      		ldi r24,lo8(4)
 994 0494 8093 0000 		sts Response_Status,r24
 995               	.L65:
 996               	.LM136:
 997 0498 0E94 0000 		call Read_Response
 998               	.LM137:
 999 049c 8091 0000 		lds r24,Response_Status
 1000 04a0 8823      		tst r24
 1001 04a2 01F0      		breq .L65
 1002               	/* epilogue start */
 1003               	.LM138:
 1004 04a4 0895      		ret
 1005               	.LFE21:
 1007               	.global	WaitForExpectedResponse
 1009               	WaitForExpectedResponse:
 1010               	.LFB24:
 1011               	.LM139:
 1012               	.LVL63:
 1013 04a6 CF93      		push r28
 1014 04a8 DF93      		push r29
 1015               	/* prologue: function */
 1016               	/* frame size = 0 */
 1017 04aa EC01      		movw r28,r24
 1018               	.LM140:
 1019 04ac 0E94 0000 		call Buffer_Flush
 1020               	.LVL64:
 1021 04b0 80ED      		ldi r24,lo8(2000)
 1022 04b2 97E0      		ldi r25,hi8(2000)
 1023               	.LVL65:
 1024               	.LBB136:
 1025               	.LBB137:
 1026               	.LBB138:
 1027               	.LBB139:
 1028               	.LM141:
 1029 04b4 28EC      		ldi r18,lo8(200)
 1030 04b6 30E0      		ldi r19,hi8(200)
 1031               	.L69:
 1032 04b8 F901      		movw r30,r18
 1033               	.LVL66:
 1034               	/* #APP */
 1035               	 ;  105 "c:/winavr-20100110/lib/gcc/../../avr/include/util/delay_basic.h" 1
 1036 04ba 3197      		1: sbiw r30,1
 1037 04bc 01F4      		brne 1b
 1038               	 ;  0 "" 2
 1039               	/* #NOAPP */
 1040               	.LBE139:
 1041               	.LBE138:
 1042               	.LM142:
 1043 04be 0197      		sbiw r24,1
 1044               	.LM143:
 1045 04c0 01F4      		brne .L69
 1046               	.LBE137:
 1047               	.LBE136:
 1048               	.LM144:
 1049 04c2 0E94 0000 		call Start_Read_Response
 1050               	.LVL67:
 1051               	.LM145:
 1052 04c6 8091 0000 		lds r24,Response_Status
 1053 04ca 8230      		cpi r24,lo8(2)
 1054 04cc 01F4      		brne .L70
 1055 04ce 80E0      		ldi r24,lo8(0)
 1056 04d0 00C0      		rjmp .L71
 1057               	.L70:
 1058 04d2 80E0      		ldi r24,lo8(RESPONSE_BUFFER)
 1059 04d4 90E0      		ldi r25,hi8(RESPONSE_BUFFER)
 1060 04d6 BE01      		movw r22,r28
 1061 04d8 0E94 0000 		call strstr
 1062 04dc 9C01      		movw r18,r24
 1063 04de 80E0      		ldi r24,lo8(0)
 1064 04e0 232B      		or r18,r19
 1065 04e2 01F0      		breq .L71
 1066 04e4 81E0      		ldi r24,lo8(1)
 1067               	.L71:
 1068               	/* epilogue start */
 1069               	.LM146:
 1070 04e6 DF91      		pop r29
 1071 04e8 CF91      		pop r28
 1072               	.LVL68:
 1073 04ea 0895      		ret
 1074               	.LFE24:
 1076               		.data
 1077               	.LC2:
 1078 000a 4154 2B48 		.string	"AT+HTTPREAD=%d,%d\r"
 1078      5454 5052 
 1078      4541 443D 
 1078      2564 2C25 
 1078      640D 00
 1079               	.LC3:
 1080 001d 2B48 5454 		.string	"+HTTPREAD"
 1080      5052 4541 
 1080      4400 
 1081               		.text
 1082               	.global	HTTP_Read
 1084               	HTTP_Read:
 1085               	.LFB37:
 1086               	.LM147:
 1087               	.LVL69:
 1088 04ec EF92      		push r14
 1089 04ee FF92      		push r15
 1090 04f0 0F93      		push r16
 1091 04f2 1F93      		push r17
 1092 04f4 DF93      		push r29
 1093 04f6 CF93      		push r28
 1094 04f8 CDB7      		in r28,__SP_L__
 1095 04fa DEB7      		in r29,__SP_H__
 1096 04fc 6997      		sbiw r28,25
 1097 04fe 0FB6      		in __tmp_reg__,__SREG__
 1098 0500 F894      		cli
 1099 0502 DEBF      		out __SP_H__,r29
 1100 0504 0FBE      		out __SREG__,__tmp_reg__
 1101 0506 CDBF      		out __SP_L__,r28
 1102               	/* prologue: function */
 1103               	/* frame size = 25 */
 1104 0508 7B01      		movw r14,r22
 1105               	.LM148:
 1106 050a 2DB7      		in r18,__SP_L__
 1107 050c 3EB7      		in r19,__SP_H__
 1108 050e 2850      		subi r18,lo8(-(-8))
 1109 0510 3040      		sbci r19,hi8(-(-8))
 1110 0512 0FB6      		in __tmp_reg__,__SREG__
 1111 0514 F894      		cli
 1112 0516 3EBF      		out __SP_H__,r19
 1113 0518 0FBE      		out __SREG__,__tmp_reg__
 1114 051a 2DBF      		out __SP_L__,r18
 1115 051c EDB7      		in r30,__SP_L__
 1116 051e FEB7      		in r31,__SP_H__
 1117 0520 3196      		adiw r30,1
 1118 0522 8E01      		movw r16,r28
 1119 0524 0F5F      		subi r16,lo8(-(1))
 1120 0526 1F4F      		sbci r17,hi8(-(1))
 1121 0528 ADB7      		in r26,__SP_L__
 1122 052a BEB7      		in r27,__SP_H__
 1123 052c 1296      		adiw r26,1+1
 1124 052e 1C93      		st X,r17
 1125 0530 0E93      		st -X,r16
 1126 0532 1197      		sbiw r26,1
 1127 0534 20E0      		ldi r18,lo8(.LC2)
 1128 0536 30E0      		ldi r19,hi8(.LC2)
 1129 0538 3383      		std Z+3,r19
 1130 053a 2283      		std Z+2,r18
 1131 053c 8483      		std Z+4,r24
 1132 053e 1582      		std Z+5,__zero_reg__
 1133 0540 7783      		std Z+7,r23
 1134 0542 6683      		std Z+6,r22
 1135 0544 0E94 0000 		call sprintf
 1136               	.LVL70:
 1137               	.LM149:
 1138 0548 198E      		std Y+25,__zero_reg__
 1139               	.LM150:
 1140 054a 2DB7      		in r18,__SP_L__
 1141 054c 3EB7      		in r19,__SP_H__
 1142 054e 285F      		subi r18,lo8(-(8))
 1143 0550 3F4F      		sbci r19,hi8(-(8))
 1144 0552 0FB6      		in __tmp_reg__,__SREG__
 1145 0554 F894      		cli
 1146 0556 3EBF      		out __SP_H__,r19
 1147 0558 0FBE      		out __SREG__,__tmp_reg__
 1148 055a 2DBF      		out __SP_L__,r18
 1149 055c C801      		movw r24,r16
 1150 055e 0E94 0000 		call USART_SendString
 1151               	.LM151:
 1152 0562 82E0      		ldi r24,lo8(2)
 1153 0564 8093 0000 		sts CRLF_COUNT,r24
 1154               	.LM152:
 1155 0568 80E0      		ldi r24,lo8(.LC3)
 1156 056a 90E0      		ldi r25,hi8(.LC3)
 1157 056c 0E94 0000 		call WaitForExpectedResponse
 1158 0570 8823      		tst r24
 1159 0572 01F0      		breq .L77
 1160               	.LM153:
 1161 0574 80E0      		ldi r24,lo8(RESPONSE_BUFFER)
 1162 0576 90E0      		ldi r25,hi8(RESPONSE_BUFFER)
 1163 0578 B701      		movw r22,r14
 1164 057a 0E94 0000 		call GetResponseBody
 1165 057e 81E0      		ldi r24,lo8(1)
 1166               	.L77:
 1167               	/* epilogue start */
 1168               	.LM154:
 1169 0580 6996      		adiw r28,25
 1170 0582 0FB6      		in __tmp_reg__,__SREG__
 1171 0584 F894      		cli
 1172 0586 DEBF      		out __SP_H__,r29
 1173 0588 0FBE      		out __SREG__,__tmp_reg__
 1174 058a CDBF      		out __SP_L__,r28
 1175 058c CF91      		pop r28
 1176 058e DF91      		pop r29
 1177 0590 1F91      		pop r17
 1178 0592 0F91      		pop r16
 1179 0594 FF90      		pop r15
 1180 0596 EF90      		pop r14
 1181               	.LVL71:
 1182 0598 0895      		ret
 1183               	.LFE37:
 1185               		.data
 1186               	.LC4:
 1187 0027 4154 2B48 		.string	"AT+HTTPACTION=0\r"
 1187      5454 5041 
 1187      4354 494F 
 1187      4E3D 300D 
 1187      00
 1188               	.LC5:
 1189 0038 4154 2B48 		.string	"AT+HTTPACTION=1\r"
 1189      5454 5041 
 1189      4354 494F 
 1189      4E3D 310D 
 1189      00
 1190               	.LC6:
 1191 0049 4F4B 00   		.string	"OK"
 1192               		.text
 1193               	.global	HTTP_Action
 1195               	HTTP_Action:
 1196               	.LFB36:
 1197               	.LM155:
 1198               	.LVL72:
 1199               	/* prologue: function */
 1200               	/* frame size = 0 */
 1201               	.LM156:
 1202 059a 8823      		tst r24
 1203 059c 01F4      		brne .L80
 1204               	.LM157:
 1205 059e 80E0      		ldi r24,lo8(.LC4)
 1206 05a0 90E0      		ldi r25,hi8(.LC4)
 1207               	.LVL73:
 1208 05a2 00C0      		rjmp .L83
 1209               	.LVL74:
 1210               	.L80:
 1211               	.LM158:
 1212 05a4 8130      		cpi r24,lo8(1)
 1213 05a6 01F4      		brne .L81
 1214               	.LM159:
 1215 05a8 80E0      		ldi r24,lo8(.LC5)
 1216 05aa 90E0      		ldi r25,hi8(.LC5)
 1217               	.LVL75:
 1218               	.L83:
 1219 05ac 0E94 0000 		call USART_SendString
 1220               	.LVL76:
 1221               	.L81:
 1222               	.LM160:
 1223 05b0 80E0      		ldi r24,lo8(.LC6)
 1224 05b2 90E0      		ldi r25,hi8(.LC6)
 1225               	.LVL77:
 1226 05b4 0E94 0000 		call WaitForExpectedResponse
 1227               	/* epilogue start */
 1228               	.LM161:
 1229 05b8 0895      		ret
 1230               	.LFE36:
 1232               		.data
 1233               	.LC7:
 1234 004c 4154 2B48 		.string	"AT+HTTPSCONT\r"
 1234      5454 5053 
 1234      434F 4E54 
 1234      0D00 
 1235               		.text
 1236               	.global	HTTP_Save
 1238               	HTTP_Save:
 1239               	.LFB34:
 1240               	.LM162:
 1241               	/* prologue: function */
 1242               	/* frame size = 0 */
 1243               	.LM163:
 1244 05ba 80E0      		ldi r24,lo8(.LC7)
 1245 05bc 90E0      		ldi r25,hi8(.LC7)
 1246 05be 0E94 0000 		call USART_SendString
 1247               	.LM164:
 1248 05c2 80E0      		ldi r24,lo8(.LC6)
 1249 05c4 90E0      		ldi r25,hi8(.LC6)
 1250 05c6 0E94 0000 		call WaitForExpectedResponse
 1251               	/* epilogue start */
 1252               	.LM165:
 1253 05ca 0895      		ret
 1254               	.LFE34:
 1256               		.data
 1257               	.LC8:
 1258 005a 4154 2B53 		.string	"AT+SAPBR=2,1\r"
 1258      4150 4252 
 1258      3D32 2C31 
 1258      0D00 
 1259               	.LC9:
 1260 0068 2B53 4150 		.string	"+SAPBR: 1,1"
 1260      4252 3A20 
 1260      312C 3100 
 1261               		.text
 1262               	.global	HTTP_Connected
 1264               	HTTP_Connected:
 1265               	.LFB32:
 1266               	.LM166:
 1267               	/* prologue: function */
 1268               	/* frame size = 0 */
 1269               	.LM167:
 1270 05cc 80E0      		ldi r24,lo8(.LC8)
 1271 05ce 90E0      		ldi r25,hi8(.LC8)
 1272 05d0 0E94 0000 		call USART_SendString
 1273               	.LM168:
 1274 05d4 82E0      		ldi r24,lo8(2)
 1275 05d6 8093 0000 		sts CRLF_COUNT,r24
 1276               	.LM169:
 1277 05da 80E0      		ldi r24,lo8(.LC9)
 1278 05dc 90E0      		ldi r25,hi8(.LC9)
 1279 05de 0E94 0000 		call WaitForExpectedResponse
 1280               	/* epilogue start */
 1281               	.LM170:
 1282 05e2 0895      		ret
 1283               	.LFE32:
 1285               		.data
 1286               	.LC10:
 1287 0074 4154 2B48 		.string	"AT+HTTPTERM\r"
 1287      5454 5054 
 1287      4552 4D0D 
 1287      00
 1288               		.text
 1289               	.global	HTTP_Terminate
 1291               	HTTP_Terminate:
 1292               	.LFB30:
 1293               	.LM171:
 1294               	/* prologue: function */
 1295               	/* frame size = 0 */
 1296               	.LM172:
 1297 05e4 80E0      		ldi r24,lo8(.LC10)
 1298 05e6 90E0      		ldi r25,hi8(.LC10)
 1299 05e8 0E94 0000 		call USART_SendString
 1300               	.LM173:
 1301 05ec 80E0      		ldi r24,lo8(.LC6)
 1302 05ee 90E0      		ldi r25,hi8(.LC6)
 1303 05f0 0E94 0000 		call WaitForExpectedResponse
 1304               	/* epilogue start */
 1305               	.LM174:
 1306 05f4 0895      		ret
 1307               	.LFE30:
 1309               		.data
 1310               	.LC11:
 1311 0081 4154 2B48 		.string	"AT+HTTPINIT\r"
 1311      5454 5049 
 1311      4E49 540D 
 1311      00
 1312               		.text
 1313               	.global	HTTP_Init
 1315               	HTTP_Init:
 1316               	.LFB29:
 1317               	.LM175:
 1318               	/* prologue: function */
 1319               	/* frame size = 0 */
 1320               	.LM176:
 1321 05f6 80E0      		ldi r24,lo8(.LC11)
 1322 05f8 90E0      		ldi r25,hi8(.LC11)
 1323 05fa 0E94 0000 		call USART_SendString
 1324               	.LM177:
 1325 05fe 80E0      		ldi r24,lo8(.LC6)
 1326 0600 90E0      		ldi r25,hi8(.LC6)
 1327 0602 0E94 0000 		call WaitForExpectedResponse
 1328               	/* epilogue start */
 1329               	.LM178:
 1330 0606 0895      		ret
 1331               	.LFE29:
 1333               	.global	SIM900HTTP_Init
 1335               	SIM900HTTP_Init:
 1336               	.LFB40:
 1337               	.LM179:
 1338               	/* prologue: function */
 1339               	/* frame size = 0 */
 1340               	.LM180:
 1341 0608 0E94 0000 		call HTTP_Terminate
 1342               	.LM181:
 1343 060c 0E94 0000 		call HTTP_Init
 1344               	/* epilogue start */
 1345               	.LM182:
 1346 0610 0895      		ret
 1347               	.LFE40:
 1349               		.data
 1350               	.LC12:
 1351 008e 4154 2B43 		.string	"AT+CREG?\r"
 1351      5245 473F 
 1351      0D00 
 1352               	.LC13:
 1353 0098 2B43 5245 		.string	"+CREG: 0,1"
 1353      473A 2030 
 1353      2C31 00
 1354               	.LC14:
 1355 00a3 4154 2B53 		.string	"AT+SAPBR=0,1\r"
 1355      4150 4252 
 1355      3D30 2C31 
 1355      0D00 
 1356               	.LC15:
 1357 00b1 4154 2B53 		.string	"AT+SAPBR=3,1,\"CONTYPE\",\"GPRS\"\r"
 1357      4150 4252 
 1357      3D33 2C31 
 1357      2C22 434F 
 1357      4E54 5950 
 1358               	.LC16:
 1359 00d0 4154 2B53 		.string	"AT+SAPBR=3,1,\"APN\",\""
 1359      4150 4252 
 1359      3D33 2C31 
 1359      2C22 4150 
 1359      4E22 2C22 
 1360               	.LC17:
 1361 00e5 220D 00   		.string	"\"\r"
 1362               	.LC18:
 1363 00e8 4154 2B53 		.string	"AT+SAPBR=3,1,\"USER\",\""
 1363      4150 4252 
 1363      3D33 2C31 
 1363      2C22 5553 
 1363      4552 222C 
 1364               	.LC19:
 1365 00fe 4154 2B53 		.string	"AT+SAPBR=3,1,\"PWD\",\""
 1365      4150 4252 
 1365      3D33 2C31 
 1365      2C22 5057 
 1365      4422 2C22 
 1366               	.LC20:
 1367 0113 4154 2B53 		.string	"AT+SAPBR=1,1\r"
 1367      4150 4252 
 1367      3D31 2C31 
 1367      0D00 
 1368               		.text
 1369               	.global	SIM900HTTP_Connect
 1371               	SIM900HTTP_Connect:
 1372               	.LFB28:
 1373               	.LM183:
 1374               	.LVL78:
 1375 0612 EF92      		push r14
 1376 0614 FF92      		push r15
 1377 0616 0F93      		push r16
 1378 0618 1F93      		push r17
 1379 061a CF93      		push r28
 1380 061c DF93      		push r29
 1381               	/* prologue: function */
 1382               	/* frame size = 0 */
 1383 061e EC01      		movw r28,r24
 1384 0620 8B01      		movw r16,r22
 1385 0622 7A01      		movw r14,r20
 1386               	.LM184:
 1387 0624 80E0      		ldi r24,lo8(.LC12)
 1388 0626 90E0      		ldi r25,hi8(.LC12)
 1389               	.LVL79:
 1390 0628 0E94 0000 		call USART_SendString
 1391               	.LVL80:
 1392               	.LM185:
 1393 062c 80E0      		ldi r24,lo8(.LC13)
 1394 062e 90E0      		ldi r25,hi8(.LC13)
 1395 0630 0E94 0000 		call WaitForExpectedResponse
 1396 0634 8823      		tst r24
 1397 0636 01F4      		brne .+2
 1398 0638 00C0      		rjmp .L96
 1399               	.LM186:
 1400 063a 80E0      		ldi r24,lo8(.LC14)
 1401 063c 90E0      		ldi r25,hi8(.LC14)
 1402 063e 0E94 0000 		call USART_SendString
 1403               	.LM187:
 1404 0642 80E0      		ldi r24,lo8(.LC6)
 1405 0644 90E0      		ldi r25,hi8(.LC6)
 1406 0646 0E94 0000 		call WaitForExpectedResponse
 1407               	.LM188:
 1408 064a 80E0      		ldi r24,lo8(.LC15)
 1409 064c 90E0      		ldi r25,hi8(.LC15)
 1410 064e 0E94 0000 		call USART_SendString
 1411               	.LM189:
 1412 0652 80E0      		ldi r24,lo8(.LC6)
 1413 0654 90E0      		ldi r25,hi8(.LC6)
 1414 0656 0E94 0000 		call WaitForExpectedResponse
 1415               	.LM190:
 1416 065a 80E0      		ldi r24,lo8(.LC16)
 1417 065c 90E0      		ldi r25,hi8(.LC16)
 1418 065e 0E94 0000 		call USART_SendString
 1419               	.LM191:
 1420 0662 CE01      		movw r24,r28
 1421 0664 0E94 0000 		call USART_SendString
 1422               	.LM192:
 1423 0668 80E0      		ldi r24,lo8(.LC17)
 1424 066a 90E0      		ldi r25,hi8(.LC17)
 1425 066c 0E94 0000 		call USART_SendString
 1426               	.LM193:
 1427 0670 80E0      		ldi r24,lo8(.LC6)
 1428 0672 90E0      		ldi r25,hi8(.LC6)
 1429 0674 0E94 0000 		call WaitForExpectedResponse
 1430               	.LM194:
 1431 0678 80E0      		ldi r24,lo8(.LC18)
 1432 067a 90E0      		ldi r25,hi8(.LC18)
 1433 067c 0E94 0000 		call USART_SendString
 1434               	.LM195:
 1435 0680 C801      		movw r24,r16
 1436 0682 0E94 0000 		call USART_SendString
 1437               	.LM196:
 1438 0686 80E0      		ldi r24,lo8(.LC17)
 1439 0688 90E0      		ldi r25,hi8(.LC17)
 1440 068a 0E94 0000 		call USART_SendString
 1441               	.LM197:
 1442 068e 80E0      		ldi r24,lo8(.LC6)
 1443 0690 90E0      		ldi r25,hi8(.LC6)
 1444 0692 0E94 0000 		call WaitForExpectedResponse
 1445               	.LM198:
 1446 0696 80E0      		ldi r24,lo8(.LC19)
 1447 0698 90E0      		ldi r25,hi8(.LC19)
 1448 069a 0E94 0000 		call USART_SendString
 1449               	.LM199:
 1450 069e C701      		movw r24,r14
 1451 06a0 0E94 0000 		call USART_SendString
 1452               	.LM200:
 1453 06a4 80E0      		ldi r24,lo8(.LC17)
 1454 06a6 90E0      		ldi r25,hi8(.LC17)
 1455 06a8 0E94 0000 		call USART_SendString
 1456               	.LM201:
 1457 06ac 80E0      		ldi r24,lo8(.LC6)
 1458 06ae 90E0      		ldi r25,hi8(.LC6)
 1459 06b0 0E94 0000 		call WaitForExpectedResponse
 1460               	.LM202:
 1461 06b4 80E0      		ldi r24,lo8(.LC20)
 1462 06b6 90E0      		ldi r25,hi8(.LC20)
 1463 06b8 0E94 0000 		call USART_SendString
 1464               	.LM203:
 1465 06bc 80E0      		ldi r24,lo8(.LC6)
 1466 06be 90E0      		ldi r25,hi8(.LC6)
 1467 06c0 0E94 0000 		call WaitForExpectedResponse
 1468               	.L96:
 1469               	/* epilogue start */
 1470               	.LM204:
 1471 06c4 DF91      		pop r29
 1472 06c6 CF91      		pop r28
 1473               	.LVL81:
 1474 06c8 1F91      		pop r17
 1475 06ca 0F91      		pop r16
 1476               	.LVL82:
 1477 06cc FF90      		pop r15
 1478 06ce EF90      		pop r14
 1479               	.LVL83:
 1480 06d0 0895      		ret
 1481               	.LFE28:
 1483               		.data
 1484               	.LC21:
 1485 0121 4154 2B48 		.string	"AT+HTTPPARA=\""
 1485      5454 5050 
 1485      4152 413D 
 1485      2200 
 1486               	.LC22:
 1487 012f 222C 2200 		.string	"\",\""
 1488               		.text
 1489               	.global	HTTP_Parameter
 1491               	HTTP_Parameter:
 1492               	.LFB26:
 1493               	.LM205:
 1494               	.LVL84:
 1495 06d2 EF92      		push r14
 1496 06d4 FF92      		push r15
 1497 06d6 0F93      		push r16
 1498 06d8 1F93      		push r17
 1499               	/* prologue: function */
 1500               	/* frame size = 0 */
 1501 06da 8C01      		movw r16,r24
 1502 06dc 7B01      		movw r14,r22
 1503               	.LM206:
 1504 06de 80E0      		ldi r24,lo8(.LC21)
 1505 06e0 90E0      		ldi r25,hi8(.LC21)
 1506               	.LVL85:
 1507 06e2 0E94 0000 		call USART_SendString
 1508               	.LVL86:
 1509               	.LM207:
 1510 06e6 C801      		movw r24,r16
 1511 06e8 0E94 0000 		call USART_SendString
 1512               	.LM208:
 1513 06ec 80E0      		ldi r24,lo8(.LC22)
 1514 06ee 90E0      		ldi r25,hi8(.LC22)
 1515 06f0 0E94 0000 		call USART_SendString
 1516               	.LM209:
 1517 06f4 C701      		movw r24,r14
 1518 06f6 0E94 0000 		call USART_SendString
 1519               	.LM210:
 1520 06fa 80E0      		ldi r24,lo8(.LC17)
 1521 06fc 90E0      		ldi r25,hi8(.LC17)
 1522 06fe 0E94 0000 		call USART_SendString
 1523               	.LM211:
 1524 0702 80E0      		ldi r24,lo8(.LC6)
 1525 0704 90E0      		ldi r25,hi8(.LC6)
 1526 0706 0E94 0000 		call WaitForExpectedResponse
 1527               	/* epilogue start */
 1528               	.LM212:
 1529 070a 1F91      		pop r17
 1530 070c 0F91      		pop r16
 1531               	.LVL87:
 1532 070e FF90      		pop r15
 1533 0710 EF90      		pop r14
 1534               	.LVL88:
 1535 0712 0895      		ret
 1536               	.LFE26:
 1538               		.data
 1539               	.LC23:
 1540 0133 434F 4E54 		.string	"CONTENT"
 1540      454E 5400 
 1541               	.LC24:
 1542 013b 6170 706C 		.string	"application/json"
 1542      6963 6174 
 1542      696F 6E2F 
 1542      6A73 6F6E 
 1542      00
 1543               		.text
 1544               	.global	HTTP_SetPost_json
 1546               	HTTP_SetPost_json:
 1547               	.LFB33:
 1548               	.LM213:
 1549               	/* prologue: function */
 1550               	/* frame size = 0 */
 1551               	.LM214:
 1552 0714 80E0      		ldi r24,lo8(.LC23)
 1553 0716 90E0      		ldi r25,hi8(.LC23)
 1554 0718 60E0      		ldi r22,lo8(.LC24)
 1555 071a 70E0      		ldi r23,hi8(.LC24)
 1556 071c 0E94 0000 		call HTTP_Parameter
 1557               	/* epilogue start */
 1558               	.LM215:
 1559 0720 0895      		ret
 1560               	.LFE33:
 1562               		.data
 1563               	.LC25:
 1564 014c 5552 4C00 		.string	"URL"
 1565               		.text
 1566               	.global	HTTP_SetURL
 1568               	HTTP_SetURL:
 1569               	.LFB31:
 1570               	.LM216:
 1571               	.LVL89:
 1572               	/* prologue: function */
 1573               	/* frame size = 0 */
 1574 0722 BC01      		movw r22,r24
 1575               	.LM217:
 1576 0724 80E0      		ldi r24,lo8(.LC25)
 1577 0726 90E0      		ldi r25,hi8(.LC25)
 1578               	.LVL90:
 1579 0728 0E94 0000 		call HTTP_Parameter
 1580               	.LVL91:
 1581               	/* epilogue start */
 1582               	.LM218:
 1583 072c 0895      		ret
 1584               	.LFE31:
 1586               		.data
 1587               	.LC26:
 1588 0150 4349 4400 		.string	"CID"
 1589               	.LC27:
 1590 0154 3100      		.string	"1"
 1591               	.LC28:
 1592 0156 2B48 5454 		.string	"+HTTPACTION:0,"
 1592      5041 4354 
 1592      494F 4E3A 
 1592      302C 00
 1593               		.text
 1594               	.global	HTTP_get
 1596               	HTTP_get:
 1597               	.LFB39:
 1598               	.LM219:
 1599               	.LVL92:
 1600 072e 0F93      		push r16
 1601 0730 1F93      		push r17
 1602 0732 CF93      		push r28
 1603 0734 DF93      		push r29
 1604               	/* prologue: function */
 1605               	/* frame size = 0 */
 1606 0736 8C01      		movw r16,r24
 1607 0738 EB01      		movw r28,r22
 1608               	.LM220:
 1609 073a 80E0      		ldi r24,lo8(.LC26)
 1610 073c 90E0      		ldi r25,hi8(.LC26)
 1611               	.LVL93:
 1612 073e 60E0      		ldi r22,lo8(.LC27)
 1613 0740 70E0      		ldi r23,hi8(.LC27)
 1614               	.LVL94:
 1615 0742 0E94 0000 		call HTTP_Parameter
 1616               	.LM221:
 1617 0746 80E0      		ldi r24,lo8(.LC25)
 1618 0748 90E0      		ldi r25,hi8(.LC25)
 1619 074a B801      		movw r22,r16
 1620 074c 0E94 0000 		call HTTP_Parameter
 1621               	.LM222:
 1622 0750 80E0      		ldi r24,lo8(0)
 1623 0752 0E94 0000 		call HTTP_Action
 1624               	.LM223:
 1625 0756 80E0      		ldi r24,lo8(.LC28)
 1626 0758 90E0      		ldi r25,hi8(.LC28)
 1627 075a 0E94 0000 		call WaitForExpectedResponse
 1628               	.LM224:
 1629 075e 8091 0000 		lds r24,Response_Status
 1630 0762 8230      		cpi r24,lo8(2)
 1631 0764 01F0      		breq .L106
 1632               	.LM225:
 1633 0766 80E0      		ldi r24,lo8(0)
 1634 0768 BE01      		movw r22,r28
 1635 076a 0E94 0000 		call HTTP_Read
 1636 076e 81E0      		ldi r24,lo8(1)
 1637               	.L106:
 1638               	/* epilogue start */
 1639               	.LM226:
 1640 0770 DF91      		pop r29
 1641 0772 CF91      		pop r28
 1642               	.LVL95:
 1643 0774 1F91      		pop r17
 1644 0776 0F91      		pop r16
 1645               	.LVL96:
 1646 0778 0895      		ret
 1647               	.LFE39:
 1649               	.global	SendATandExpectResponse
 1651               	SendATandExpectResponse:
 1652               	.LFB25:
 1653               	.LM227:
 1654               	.LVL97:
 1655 077a CF93      		push r28
 1656 077c DF93      		push r29
 1657               	/* prologue: function */
 1658               	/* frame size = 0 */
 1659 077e EB01      		movw r28,r22
 1660               	.LM228:
 1661 0780 0E94 0000 		call USART_SendString
 1662               	.LVL98:
 1663               	.LBB140:
 1664               	.LBB141:
 1665               	.LM229:
 1666 0784 8DE0      		ldi r24,lo8(13)
 1667 0786 8CB9      		out 44-32,r24
 1668               	.L109:
 1669               	.LM230:
 1670 0788 5D9B      		sbis 43-32,5
 1671 078a 00C0      		rjmp .L109
 1672               	.LBE141:
 1673               	.LBE140:
 1674               	.LM231:
 1675 078c CE01      		movw r24,r28
 1676 078e 0E94 0000 		call WaitForExpectedResponse
 1677               	/* epilogue start */
 1678               	.LM232:
 1679 0792 DF91      		pop r29
 1680 0794 CF91      		pop r28
 1681               	.LVL99:
 1682 0796 0895      		ret
 1683               	.LFE25:
 1685               		.data
 1686               	.LC29:
 1687 0165 4154 4530 		.string	"ATE0"
 1687      00
 1688               	.LC30:
 1689 016a 4154 00   		.string	"AT"
 1690               		.text
 1691               	.global	SIM900HTTP_Start
 1693               	SIM900HTTP_Start:
 1694               	.LFB27:
 1695               	.LM233:
 1696 0798 1F93      		push r17
 1697               	/* prologue: function */
 1698               	/* frame size = 0 */
 1699               	.LM234:
 1700 079a 10E0      		ldi r17,lo8(0)
 1701               	.LVL100:
 1702               	.L116:
 1703               	.LBB142:
 1704               	.LM235:
 1705 079c 80E0      		ldi r24,lo8(.LC29)
 1706 079e 90E0      		ldi r25,hi8(.LC29)
 1707 07a0 60E0      		ldi r22,lo8(.LC6)
 1708 07a2 70E0      		ldi r23,hi8(.LC6)
 1709 07a4 0E94 0000 		call SendATandExpectResponse
 1710 07a8 8823      		tst r24
 1711 07aa 01F4      		brne .L113
 1712 07ac 80E0      		ldi r24,lo8(.LC30)
 1713 07ae 90E0      		ldi r25,hi8(.LC30)
 1714 07b0 60E0      		ldi r22,lo8(.LC6)
 1715 07b2 70E0      		ldi r23,hi8(.LC6)
 1716 07b4 0E94 0000 		call SendATandExpectResponse
 1717 07b8 8823      		tst r24
 1718 07ba 01F0      		breq .L114
 1719               	.L113:
 1720               	.LM236:
 1721 07bc 80E0      		ldi r24,lo8(.LC26)
 1722 07be 90E0      		ldi r25,hi8(.LC26)
 1723 07c0 60E0      		ldi r22,lo8(.LC27)
 1724 07c2 70E0      		ldi r23,hi8(.LC27)
 1725 07c4 0E94 0000 		call HTTP_Parameter
 1726 07c8 81E0      		ldi r24,lo8(1)
 1727 07ca 00C0      		rjmp .L115
 1728               	.L114:
 1729               	.LM237:
 1730 07cc 1F5F      		subi r17,lo8(-(1))
 1731 07ce 1530      		cpi r17,lo8(5)
 1732 07d0 01F4      		brne .L116
 1733 07d2 80E0      		ldi r24,lo8(0)
 1734               	.L115:
 1735               	/* epilogue start */
 1736               	.LBE142:
 1737               	.LM238:
 1738 07d4 1F91      		pop r17
 1739               	.LVL101:
 1740 07d6 0895      		ret
 1741               	.LFE27:
 1743               		.data
 1744               	.LC31:
 1745 016d 4154 2B48 		.string	"AT+HTTPDATA=%d,%d\r"
 1745      5454 5044 
 1745      4154 413D 
 1745      2564 2C25 
 1745      640D 00
 1746               	.LC32:
 1747 0180 444F 574E 		.string	"DOWNLOAD"
 1747      4C4F 4144 
 1747      00
 1748               		.text
 1749               	.global	HTTP_Data
 1751               	HTTP_Data:
 1752               	.LFB35:
 1753               	.LM239:
 1754               	.LVL102:
 1755 07d8 EF92      		push r14
 1756 07da FF92      		push r15
 1757 07dc 0F93      		push r16
 1758 07de 1F93      		push r17
 1759 07e0 DF93      		push r29
 1760 07e2 CF93      		push r28
 1761 07e4 CDB7      		in r28,__SP_L__
 1762 07e6 DEB7      		in r29,__SP_H__
 1763 07e8 6997      		sbiw r28,25
 1764 07ea 0FB6      		in __tmp_reg__,__SREG__
 1765 07ec F894      		cli
 1766 07ee DEBF      		out __SP_H__,r29
 1767 07f0 0FBE      		out __SREG__,__tmp_reg__
 1768 07f2 CDBF      		out __SP_L__,r28
 1769               	/* prologue: function */
 1770               	/* frame size = 25 */
 1771 07f4 F82E      		mov r15,r24
 1772 07f6 E92E      		mov r14,r25
 1773               	.LVL103:
 1774               	.LM240:
 1775 07f8 E82F      		mov r30,r24
 1776 07fa F92F      		mov r31,r25
 1777 07fc DF01      		movw r26,r30
 1778 07fe 0D90      		ld __tmp_reg__,X+
 1779 0800 0020      		tst __tmp_reg__
 1780 0802 01F4      		brne .-6
 1781 0804 1197      		sbiw r26,1
 1782 0806 AE1B      		sub r26,r30
 1783 0808 BF0B      		sbc r27,r31
 1784 080a 8DB7      		in r24,__SP_L__
 1785 080c 9EB7      		in r25,__SP_H__
 1786               	.LVL104:
 1787 080e 0897      		sbiw r24,8
 1788 0810 0FB6      		in __tmp_reg__,__SREG__
 1789 0812 F894      		cli
 1790 0814 9EBF      		out __SP_H__,r25
 1791 0816 0FBE      		out __SREG__,__tmp_reg__
 1792 0818 8DBF      		out __SP_L__,r24
 1793 081a 2DB7      		in r18,__SP_L__
 1794 081c 3EB7      		in r19,__SP_H__
 1795 081e 2F5F      		subi r18,lo8(-(1))
 1796 0820 3F4F      		sbci r19,hi8(-(1))
 1797 0822 8E01      		movw r16,r28
 1798 0824 0F5F      		subi r16,lo8(-(1))
 1799 0826 1F4F      		sbci r17,hi8(-(1))
 1800 0828 EDB7      		in r30,__SP_L__
 1801 082a FEB7      		in r31,__SP_H__
 1802               	.LVL105:
 1803 082c 1283      		std Z+2,r17
 1804 082e 0183      		std Z+1,r16
 1805 0830 80E0      		ldi r24,lo8(.LC31)
 1806 0832 90E0      		ldi r25,hi8(.LC31)
 1807 0834 F901      		movw r30,r18
 1808 0836 9383      		std Z+3,r25
 1809 0838 8283      		std Z+2,r24
 1810 083a B583      		std Z+5,r27
 1811 083c A483      		std Z+4,r26
 1812 083e 80E1      		ldi r24,lo8(10000)
 1813 0840 97E2      		ldi r25,hi8(10000)
 1814 0842 9783      		std Z+7,r25
 1815 0844 8683      		std Z+6,r24
 1816 0846 0E94 0000 		call sprintf
 1817               	.LVL106:
 1818               	.LM241:
 1819 084a 8DB7      		in r24,__SP_L__
 1820 084c 9EB7      		in r25,__SP_H__
 1821 084e 0896      		adiw r24,8
 1822 0850 0FB6      		in __tmp_reg__,__SREG__
 1823 0852 F894      		cli
 1824 0854 9EBF      		out __SP_H__,r25
 1825 0856 0FBE      		out __SREG__,__tmp_reg__
 1826 0858 8DBF      		out __SP_L__,r24
 1827 085a C801      		movw r24,r16
 1828 085c 0E94 0000 		call USART_SendString
 1829               	.LM242:
 1830 0860 80E0      		ldi r24,lo8(.LC32)
 1831 0862 90E0      		ldi r25,hi8(.LC32)
 1832 0864 0E94 0000 		call WaitForExpectedResponse
 1833 0868 8823      		tst r24
 1834 086a 01F0      		breq .L121
 1835               	.LM243:
 1836 086c 8F2D      		mov r24,r15
 1837 086e 9E2D      		mov r25,r14
 1838 0870 60E0      		ldi r22,lo8(.LC6)
 1839 0872 70E0      		ldi r23,hi8(.LC6)
 1840 0874 0E94 0000 		call SendATandExpectResponse
 1841               	.L121:
 1842               	/* epilogue start */
 1843               	.LM244:
 1844 0878 6996      		adiw r28,25
 1845 087a 0FB6      		in __tmp_reg__,__SREG__
 1846 087c F894      		cli
 1847 087e DEBF      		out __SP_H__,r29
 1848 0880 0FBE      		out __SREG__,__tmp_reg__
 1849 0882 CDBF      		out __SP_L__,r28
 1850 0884 CF91      		pop r28
 1851 0886 DF91      		pop r29
 1852 0888 1F91      		pop r17
 1853 088a 0F91      		pop r16
 1854 088c FF90      		pop r15
 1855               	.LVL107:
 1856 088e EF90      		pop r14
 1857               	.LVL108:
 1858 0890 0895      		ret
 1859               	.LFE35:
 1861               		.data
 1862               	.LC33:
 1863 0189 2C32 3030 		.string	",200,"
 1863      2C00 
 1864               		.text
 1865               	.global	HTTP_Post
 1867               	HTTP_Post:
 1868               	.LFB38:
 1869               	.LM245:
 1870               	.LVL109:
 1871 0892 0F93      		push r16
 1872 0894 1F93      		push r17
 1873 0896 CF93      		push r28
 1874 0898 DF93      		push r29
 1875               	/* prologue: function */
 1876               	/* frame size = 0 */
 1877 089a 8C01      		movw r16,r24
 1878 089c EB01      		movw r28,r22
 1879               	.LM246:
 1880 089e 80E0      		ldi r24,lo8(.LC26)
 1881 08a0 90E0      		ldi r25,hi8(.LC26)
 1882               	.LVL110:
 1883 08a2 60E0      		ldi r22,lo8(.LC27)
 1884 08a4 70E0      		ldi r23,hi8(.LC27)
 1885               	.LVL111:
 1886 08a6 0E94 0000 		call HTTP_Parameter
 1887               	.LM247:
 1888 08aa C801      		movw r24,r16
 1889 08ac 0E94 0000 		call HTTP_Data
 1890 08b0 8823      		tst r24
 1891 08b2 01F0      		breq .L124
 1892 08b4 81E0      		ldi r24,lo8(1)
 1893 08b6 0E94 0000 		call HTTP_Action
 1894 08ba 8823      		tst r24
 1895 08bc 01F0      		breq .L124
 1896               	.LM248:
 1897 08be 80E0      		ldi r24,lo8(.LC33)
 1898 08c0 90E0      		ldi r25,hi8(.LC33)
 1899 08c2 0E94 0000 		call WaitForExpectedResponse
 1900 08c6 982F      		mov r25,r24
 1901               	.LVL112:
 1902               	.LM249:
 1903 08c8 8091 0000 		lds r24,Response_Status
 1904 08cc 8230      		cpi r24,lo8(2)
 1905 08ce 01F0      		breq .L124
 1906               	.LM250:
 1907 08d0 9923      		tst r25
 1908 08d2 01F4      		brne .L125
 1909 08d4 85E0      		ldi r24,lo8(5)
 1910 08d6 00C0      		rjmp .L126
 1911               	.L125:
 1912               	.LM251:
 1913 08d8 80E0      		ldi r24,lo8(0)
 1914 08da BE01      		movw r22,r28
 1915 08dc 0E94 0000 		call HTTP_Read
 1916               	.LVL113:
 1917 08e0 81E0      		ldi r24,lo8(1)
 1918 08e2 00C0      		rjmp .L126
 1919               	.LVL114:
 1920               	.L124:
 1921               	.LM252:
 1922 08e4 82E0      		ldi r24,lo8(2)
 1923               	.L126:
 1924               	/* epilogue start */
 1925               	.LM253:
 1926 08e6 DF91      		pop r29
 1927 08e8 CF91      		pop r28
 1928               	.LVL115:
 1929 08ea 1F91      		pop r17
 1930 08ec 0F91      		pop r16
 1931               	.LVL116:
 1932 08ee 0895      		ret
 1933               	.LFE38:
 1935               	.global	convert_to_degrees
 1937               	convert_to_degrees:
 1938               	.LFB19:
 1939               	.LM254:
 1940               	.LVL117:
 1941 08f0 AF92      		push r10
 1942 08f2 BF92      		push r11
 1943 08f4 CF92      		push r12
 1944 08f6 DF92      		push r13
 1945 08f8 EF92      		push r14
 1946 08fa FF92      		push r15
 1947 08fc 0F93      		push r16
 1948 08fe 1F93      		push r17
 1949               	/* prologue: function */
 1950               	/* frame size = 0 */
 1951               	.LM255:
 1952 0900 0E94 0000 		call atof
 1953               	.LVL118:
 1954               	.LM256:
 1955 0904 20E0      		ldi r18,lo8(0x42c80000)
 1956 0906 30E0      		ldi r19,hi8(0x42c80000)
 1957 0908 48EC      		ldi r20,hlo8(0x42c80000)
 1958 090a 52E4      		ldi r21,hhi8(0x42c80000)
 1959 090c 0E94 0000 		call __divsf3
 1960 0910 7B01      		movw r14,r22
 1961 0912 8C01      		movw r16,r24
 1962               	.LM257:
 1963 0914 0E94 0000 		call __fixsfsi
 1964               	.LM258:
 1965 0918 8827      		clr r24
 1966 091a 77FD      		sbrc r23,7
 1967 091c 8095      		com r24
 1968 091e 982F      		mov r25,r24
 1969 0920 0E94 0000 		call __floatsisf
 1970 0924 5B01      		movw r10,r22
 1971 0926 6C01      		movw r12,r24
 1972 0928 C801      		movw r24,r16
 1973 092a B701      		movw r22,r14
 1974 092c A601      		movw r20,r12
 1975 092e 9501      		movw r18,r10
 1976 0930 0E94 0000 		call __subsf3
 1977 0934 2AE9      		ldi r18,lo8(0x3f19999a)
 1978 0936 39E9      		ldi r19,hi8(0x3f19999a)
 1979 0938 49E1      		ldi r20,hlo8(0x3f19999a)
 1980 093a 5FE3      		ldi r21,hhi8(0x3f19999a)
 1981 093c 0E94 0000 		call __divsf3
 1982 0940 9B01      		movw r18,r22
 1983 0942 AC01      		movw r20,r24
 1984 0944 C601      		movw r24,r12
 1985 0946 B501      		movw r22,r10
 1986 0948 0E94 0000 		call __addsf3
 1987 094c 46E0      		ldi r20,lo8(6)
 1988 094e 24E0      		ldi r18,lo8(4)
 1989 0950 00E0      		ldi r16,lo8(degrees_buffer)
 1990 0952 10E0      		ldi r17,hi8(degrees_buffer)
 1991 0954 0E94 0000 		call dtostrf
 1992               	/* epilogue start */
 1993               	.LM259:
 1994 0958 1F91      		pop r17
 1995 095a 0F91      		pop r16
 1996 095c FF90      		pop r15
 1997 095e EF90      		pop r14
 1998 0960 DF90      		pop r13
 1999 0962 CF90      		pop r12
 2000 0964 BF90      		pop r11
 2001 0966 AF90      		pop r10
 2002 0968 0895      		ret
 2003               	.LFE19:
 2005               	.global	get_longitude
 2007               	get_longitude:
 2008               	.LFB18:
 2009               	.LM260:
 2010               	.LVL119:
 2011               	/* prologue: function */
 2012               	/* frame size = 0 */
 2013               	.LM261:
 2014               	/* #APP */
 2015               	 ;  96 "last.c" 1
 2016 096a F894      		cli
 2017               	 ;  0 "" 2
 2018               	.LM262:
 2019               	/* #NOAPP */
 2020 096c 8F5F      		subi r24,lo8(-(1))
 2021               	.LVL120:
 2022 096e 90E0      		ldi r25,lo8(0)
 2023               	.LVL121:
 2024 0970 00C0      		rjmp .L131
 2025               	.LVL122:
 2026               	.L132:
 2027               	.LM263:
 2028 0972 E050      		subi r30,lo8(-(Longitude_Buffer))
 2029 0974 F040      		sbci r31,hi8(-(Longitude_Buffer))
 2030               	.LVL123:
 2031 0976 2083      		st Z,r18
 2032               	.LVL124:
 2033               	.L131:
 2034               	.LM264:
 2035 0978 E82F      		mov r30,r24
 2036               	.LVL125:
 2037 097a F0E0      		ldi r31,lo8(0)
 2038               	.LVL126:
 2039 097c E050      		subi r30,lo8(-(GGA_Buffer))
 2040 097e F040      		sbci r31,hi8(-(GGA_Buffer))
 2041               	.LVL127:
 2042 0980 2081      		ld r18,Z
 2043 0982 E92F      		mov r30,r25
 2044               	.LVL128:
 2045 0984 F0E0      		ldi r31,lo8(0)
 2046               	.LVL129:
 2047 0986 9F5F      		subi r25,lo8(-(1))
 2048               	.LVL130:
 2049 0988 8F5F      		subi r24,lo8(-(1))
 2050               	.LVL131:
 2051 098a 2C32      		cpi r18,lo8(44)
 2052 098c 01F4      		brne .L132
 2053               	.LM265:
 2054 098e E050      		subi r30,lo8(-(Longitude_Buffer))
 2055 0990 F040      		sbci r31,hi8(-(Longitude_Buffer))
 2056               	.LVL132:
 2057 0992 2083      		st Z,r18
 2058               	.LM266:
 2059 0994 E92F      		mov r30,r25
 2060               	.LVL133:
 2061 0996 F0E0      		ldi r31,lo8(0)
 2062               	.LVL134:
 2063 0998 E050      		subi r30,lo8(-(Longitude_Buffer))
 2064 099a F040      		sbci r31,hi8(-(Longitude_Buffer))
 2065 099c A82F      		mov r26,r24
 2066 099e B0E0      		ldi r27,lo8(0)
 2067 09a0 A050      		subi r26,lo8(-(GGA_Buffer))
 2068 09a2 B040      		sbci r27,hi8(-(GGA_Buffer))
 2069 09a4 8C91      		ld r24,X
 2070 09a6 8083      		st Z,r24
 2071               	.LM267:
 2072 09a8 80E0      		ldi r24,lo8(Longitude_Buffer)
 2073 09aa 90E0      		ldi r25,hi8(Longitude_Buffer)
 2074 09ac 0E94 0000 		call convert_to_degrees
 2075               	.LM268:
 2076               	/* #APP */
 2077               	 ;  109 "last.c" 1
 2078 09b0 7894      		sei
 2079               	 ;  0 "" 2
 2080               	/* epilogue start */
 2081               	.LM269:
 2082               	/* #NOAPP */
 2083 09b2 0895      		ret
 2084               	.LFE18:
 2086               	.global	get_latitude
 2088               	get_latitude:
 2089               	.LFB17:
 2090               	.LM270:
 2091               	.LVL135:
 2092               	/* prologue: function */
 2093               	/* frame size = 0 */
 2094               	.LM271:
 2095               	/* #APP */
 2096               	 ;  74 "last.c" 1
 2097 09b4 F894      		cli
 2098               	 ;  0 "" 2
 2099               	.LM272:
 2100               	/* #NOAPP */
 2101 09b6 8F5F      		subi r24,lo8(-(1))
 2102               	.LVL136:
 2103 09b8 90E0      		ldi r25,lo8(0)
 2104               	.LVL137:
 2105 09ba 00C0      		rjmp .L135
 2106               	.LVL138:
 2107               	.L137:
 2108               	.LM273:
 2109 09bc E92F      		mov r30,r25
 2110               	.LVL139:
 2111 09be F0E0      		ldi r31,lo8(0)
 2112               	.LVL140:
 2113 09c0 E050      		subi r30,lo8(-(Latitude_Buffer))
 2114 09c2 F040      		sbci r31,hi8(-(Latitude_Buffer))
 2115               	.LVL141:
 2116 09c4 2083      		st Z,r18
 2117               	.LM274:
 2118 09c6 9F5F      		subi r25,lo8(-(1))
 2119               	.LVL142:
 2120               	.LM275:
 2121 09c8 8F5F      		subi r24,lo8(-(1))
 2122               	.LVL143:
 2123               	.L135:
 2124               	.LM276:
 2125 09ca E82F      		mov r30,r24
 2126 09cc F0E0      		ldi r31,lo8(0)
 2127               	.LVL144:
 2128 09ce E050      		subi r30,lo8(-(GGA_Buffer))
 2129 09d0 F040      		sbci r31,hi8(-(GGA_Buffer))
 2130               	.LVL145:
 2131 09d2 2081      		ld r18,Z
 2132 09d4 2C32      		cpi r18,lo8(44)
 2133 09d6 01F0      		breq .L136
 2134 09d8 2223      		tst r18
 2135 09da 01F4      		brne .L137
 2136               	.L136:
 2137               	.LM277:
 2138 09dc E92F      		mov r30,r25
 2139               	.LVL146:
 2140 09de F0E0      		ldi r31,lo8(0)
 2141               	.LVL147:
 2142 09e0 E050      		subi r30,lo8(-(Latitude_Buffer))
 2143 09e2 F040      		sbci r31,hi8(-(Latitude_Buffer))
 2144 09e4 1082      		st Z,__zero_reg__
 2145               	.LM278:
 2146 09e6 2C32      		cpi r18,lo8(44)
 2147 09e8 01F4      		brne .L138
 2148               	.LM279:
 2149 09ea 2083      		st Z,r18
 2150               	.LM280:
 2151 09ec 9F5F      		subi r25,lo8(-(1))
 2152 09ee E92F      		mov r30,r25
 2153 09f0 F0E0      		ldi r31,lo8(0)
 2154 09f2 E050      		subi r30,lo8(-(Latitude_Buffer))
 2155 09f4 F040      		sbci r31,hi8(-(Latitude_Buffer))
 2156 09f6 8F5F      		subi r24,lo8(-(1))
 2157               	.LVL148:
 2158 09f8 A82F      		mov r26,r24
 2159 09fa B0E0      		ldi r27,lo8(0)
 2160 09fc A050      		subi r26,lo8(-(GGA_Buffer))
 2161 09fe B040      		sbci r27,hi8(-(GGA_Buffer))
 2162 0a00 8C91      		ld r24,X
 2163               	.LVL149:
 2164 0a02 8083      		st Z,r24
 2165               	.L138:
 2166               	.LM281:
 2167 0a04 80E0      		ldi r24,lo8(Latitude_Buffer)
 2168 0a06 90E0      		ldi r25,hi8(Latitude_Buffer)
 2169 0a08 0E94 0000 		call convert_to_degrees
 2170               	.LVL150:
 2171               	.LM282:
 2172               	/* #APP */
 2173               	 ;  92 "last.c" 1
 2174 0a0c 7894      		sei
 2175               	 ;  0 "" 2
 2176               	/* epilogue start */
 2177               	.LM283:
 2178               	/* #NOAPP */
 2179 0a0e 0895      		ret
 2180               	.LFE17:
 2182               		.data
 2183               	.LC34:
 2184 018f 4469 616C 		.string	"Dialog internet"
 2184      6F67 2069 
 2184      6E74 6572 
 2184      6E65 7400 
 2185               	.LC35:
 2186 019f 7361 756D 		.string	"saumya"
 2186      7961 00
 2187               	.LC36:
 2188 01a6 00        		.string	""
 2189               	.LC37:
 2190 01a7 6170 692E 		.string	"api.thingspeak.com/update"
 2190      7468 696E 
 2190      6773 7065 
 2190      616B 2E63 
 2190      6F6D 2F75 
 2191               	.LC38:
 2192 01c1 6170 695F 		.string	"api_key=%s&field1=%s&field2=%s"
 2192      6B65 793D 
 2192      2573 2666 
 2192      6965 6C64 
 2192      313D 2573 
 2193               	.LC39:
 2194 01e0 5248 4E45 		.string	"RHNEE35WXX0PL7LS"
 2194      4533 3557 
 2194      5858 3050 
 2194      4C37 4C53 
 2194      00
 2195               	.LC40:
 2196 01f1 4C61 743A 		.string	"Lat: "
 2196      2000 
 2197               	.LC41:
 2198 01f7 4C6F 6E67 		.string	"Long: "
 2198      3A20 00
 2199               		.text
 2200               	.global	main
 2202               	main:
 2203               	.LFB41:
 2204               	.LM284:
 2205 0a10 2F92      		push r2
 2206 0a12 3F92      		push r3
 2207 0a14 4F92      		push r4
 2208 0a16 5F92      		push r5
 2209 0a18 6F92      		push r6
 2210 0a1a 7F92      		push r7
 2211 0a1c 8F92      		push r8
 2212 0a1e 9F92      		push r9
 2213 0a20 AF92      		push r10
 2214 0a22 BF92      		push r11
 2215 0a24 CF92      		push r12
 2216 0a26 DF92      		push r13
 2217 0a28 EF92      		push r14
 2218 0a2a FF92      		push r15
 2219 0a2c 0F93      		push r16
 2220 0a2e 1F93      		push r17
 2221 0a30 DF93      		push r29
 2222 0a32 CF93      		push r28
 2223 0a34 CDB7      		in r28,__SP_L__
 2224 0a36 DEB7      		in r29,__SP_H__
 2225 0a38 C456      		subi r28,lo8(-(-100))
 2226 0a3a D040      		sbci r29,hi8(-(-100))
 2227 0a3c 0FB6      		in __tmp_reg__,__SREG__
 2228 0a3e F894      		cli
 2229 0a40 DEBF      		out __SP_H__,r29
 2230 0a42 0FBE      		out __SREG__,__tmp_reg__
 2231 0a44 CDBF      		out __SP_L__,r28
 2232               	/* prologue: function */
 2233               	/* frame size = 100 */
 2234               	.LM285:
 2235 0a46 1092 0000 		sts (GGA_Index)+1,__zero_reg__
 2236 0a4a 1092 0000 		sts GGA_Index,__zero_reg__
 2237               	.LM286:
 2238 0a4e 86E9      		ldi r24,lo8(-106)
 2239 0a50 E0E0      		ldi r30,lo8(GGA_Buffer)
 2240 0a52 F0E0      		ldi r31,hi8(GGA_Buffer)
 2241 0a54 DF01      		movw r26,r30
 2242 0a56 1D92      		st X+,__zero_reg__
 2243 0a58 8A95      	        dec r24
 2244 0a5a 01F4      		brne .-6
 2245               	.LM287:
 2246 0a5c 84E1      		ldi r24,lo8(20)
 2247 0a5e E0E0      		ldi r30,lo8(degrees_buffer)
 2248 0a60 F0E0      		ldi r31,hi8(degrees_buffer)
 2249 0a62 DF01      		movw r26,r30
 2250 0a64 1D92      		st X+,__zero_reg__
 2251 0a66 8A95      	        dec r24
 2252 0a68 01F4      		brne .-6
 2253               	.LM288:
 2254 0a6a 0E94 0000 		call LCD_Init
 2255 0a6e 80E3      		ldi r24,lo8(30000)
 2256 0a70 95E7      		ldi r25,hi8(30000)
 2257               	.LVL151:
 2258               	.LBB143:
 2259               	.LBB144:
 2260               	.LBB145:
 2261               	.LBB146:
 2262               	.LM289:
 2263 0a72 28EC      		ldi r18,lo8(200)
 2264 0a74 30E0      		ldi r19,hi8(200)
 2265               	.L141:
 2266 0a76 F901      		movw r30,r18
 2267               	.LVL152:
 2268               	/* #APP */
 2269               	 ;  105 "c:/winavr-20100110/lib/gcc/../../avr/include/util/delay_basic.h" 1
 2270 0a78 3197      		1: sbiw r30,1
 2271 0a7a 01F4      		brne 1b
 2272               	 ;  0 "" 2
 2273               	/* #NOAPP */
 2274               	.LBE146:
 2275               	.LBE145:
 2276               	.LM290:
 2277 0a7c 0197      		sbiw r24,1
 2278               	.LM291:
 2279 0a7e 01F4      		brne .L141
 2280               	.LBE144:
 2281               	.LBE143:
 2282               	.LM292:
 2283 0a80 60E8      		ldi r22,lo8(9600)
 2284 0a82 75E2      		ldi r23,hi8(9600)
 2285 0a84 80E0      		ldi r24,hlo8(9600)
 2286 0a86 90E0      		ldi r25,hhi8(9600)
 2287 0a88 0E94 0000 		call UART_Init
 2288               	.LVL153:
 2289               	.LM293:
 2290               	/* #APP */
 2291               	 ;  409 "last.c" 1
 2292 0a8c 7894      		sei
 2293               	 ;  0 "" 2
 2294               	/* #NOAPP */
 2295 0a8e 20E1      		ldi r18,lo8(10000)
 2296 0a90 37E2      		ldi r19,hi8(10000)
 2297               	.LVL154:
 2298               	.LBB147:
 2299               	.LM294:
 2300 0a92 94E6      		ldi r25,lo8(100)
 2301 0a94 292E      		mov r2,r25
 2302 0a96 7E01      		movw r14,r28
 2303 0a98 0894      		sec
 2304 0a9a E11C      		adc r14,__zero_reg__
 2305 0a9c F11C      		adc r15,__zero_reg__
 2306               	.LM295:
 2307 0a9e 80E0      		ldi r24,lo8(.LC38)
 2308 0aa0 482E      		mov r4,r24
 2309 0aa2 80E0      		ldi r24,hi8(.LC38)
 2310 0aa4 582E      		mov r5,r24
 2311 0aa6 00E0      		ldi r16,lo8(.LC39)
 2312 0aa8 602E      		mov r6,r16
 2313 0aaa 00E0      		ldi r16,hi8(.LC39)
 2314 0aac 702E      		mov r7,r16
 2315 0aae 10E0      		ldi r17,lo8(Latitude_Buffer)
 2316 0ab0 812E      		mov r8,r17
 2317 0ab2 10E0      		ldi r17,hi8(Latitude_Buffer)
 2318 0ab4 912E      		mov r9,r17
 2319 0ab6 B0E0      		ldi r27,lo8(Longitude_Buffer)
 2320 0ab8 AB2E      		mov r10,r27
 2321 0aba B0E0      		ldi r27,hi8(Longitude_Buffer)
 2322 0abc BB2E      		mov r11,r27
 2323               	.LBB148:
 2324               	.LBB149:
 2325               	.LBB150:
 2326               	.LBB151:
 2327               	.LM296:
 2328 0abe 08EC      		ldi r16,lo8(200)
 2329 0ac0 10E0      		ldi r17,hi8(200)
 2330               	.LBE151:
 2331               	.LBE150:
 2332               	.LBE149:
 2333               	.LBE148:
 2334               	.LBE147:
 2335               	.LM297:
 2336 0ac2 A0E0      		ldi r26,lo8(degrees_buffer)
 2337 0ac4 CA2E      		mov r12,r26
 2338 0ac6 A0E0      		ldi r26,hi8(degrees_buffer)
 2339 0ac8 DA2E      		mov r13,r26
 2340               	.LM298:
 2341 0aca F4E1      		ldi r31,lo8(20)
 2342 0acc 3F2E      		mov r3,r31
 2343 0ace 00C0      		rjmp .L152
 2344               	.LVL155:
 2345               	.L143:
 2346               	.LBB156:
 2347               	.LBB157:
 2348               	.LBB158:
 2349               	.LBB159:
 2350               	.LM299:
 2351 0ad0 C801      		movw r24,r16
 2352               	.LVL156:
 2353               	/* #APP */
 2354               	 ;  105 "c:/winavr-20100110/lib/gcc/../../avr/include/util/delay_basic.h" 1
 2355 0ad2 0197      		1: sbiw r24,1
 2356 0ad4 01F4      		brne 1b
 2357               	 ;  0 "" 2
 2358               	/* #NOAPP */
 2359               	.LBE159:
 2360               	.LBE158:
 2361               	.LM300:
 2362 0ad6 2150      		subi r18,lo8(-(-1))
 2363 0ad8 3040      		sbci r19,hi8(-(-1))
 2364               	.L152:
 2365               	.LM301:
 2366 0ada 2115      		cp r18,__zero_reg__
 2367 0adc 3105      		cpc r19,__zero_reg__
 2368 0ade 01F4      		brne .L143
 2369               	.LBE157:
 2370               	.LBE156:
 2371               	.LBB160:
 2372               	.LM302:
 2373 0ae0 0E94 0000 		call HTTP_Connected
 2374               	.LVL157:
 2375 0ae4 8823      		tst r24
 2376 0ae6 01F4      		brne .L144
 2377               	.LM303:
 2378 0ae8 80E0      		ldi r24,lo8(.LC34)
 2379 0aea 90E0      		ldi r25,hi8(.LC34)
 2380 0aec 60E0      		ldi r22,lo8(.LC35)
 2381 0aee 70E0      		ldi r23,hi8(.LC35)
 2382 0af0 40E0      		ldi r20,lo8(.LC36)
 2383 0af2 50E0      		ldi r21,hi8(.LC36)
 2384 0af4 0E94 0000 		call SIM900HTTP_Connect
 2385               	.LM304:
 2386 0af8 0E94 0000 		call SIM900HTTP_Init
 2387               	.L144:
 2388               	.LM305:
 2389 0afc F701      		movw r30,r14
 2390 0afe 822D      		mov r24,r2
 2391 0b00 1192      		st Z+,__zero_reg__
 2392 0b02 8A95      	        dec r24
 2393 0b04 01F4      		brne .-6
 2394               	.LM306:
 2395 0b06 80E0      		ldi r24,lo8(.LC37)
 2396 0b08 90E0      		ldi r25,hi8(.LC37)
 2397 0b0a 0E94 0000 		call HTTP_SetURL
 2398               	.LM307:
 2399 0b0e 0E94 0000 		call HTTP_Save
 2400               	.LM308:
 2401 0b12 ADB7      		in r26,__SP_L__
 2402 0b14 BEB7      		in r27,__SP_H__
 2403 0b16 1A97      		sbiw r26,10
 2404 0b18 0FB6      		in __tmp_reg__,__SREG__
 2405 0b1a F894      		cli
 2406 0b1c BEBF      		out __SP_H__,r27
 2407 0b1e 0FBE      		out __SREG__,__tmp_reg__
 2408 0b20 ADBF      		out __SP_L__,r26
 2409 0b22 EDB7      		in r30,__SP_L__
 2410 0b24 FEB7      		in r31,__SP_H__
 2411 0b26 3196      		adiw r30,1
 2412 0b28 1296      		adiw r26,1+1
 2413 0b2a FC92      		st X,r15
 2414 0b2c EE92      		st -X,r14
 2415 0b2e 1197      		sbiw r26,1
 2416 0b30 5382      		std Z+3,r5
 2417 0b32 4282      		std Z+2,r4
 2418 0b34 7582      		std Z+5,r7
 2419 0b36 6482      		std Z+4,r6
 2420 0b38 9782      		std Z+7,r9
 2421 0b3a 8682      		std Z+6,r8
 2422 0b3c B186      		std Z+9,r11
 2423 0b3e A086      		std Z+8,r10
 2424 0b40 0E94 0000 		call sprintf
 2425               	.LM309:
 2426 0b44 EDB7      		in r30,__SP_L__
 2427 0b46 FEB7      		in r31,__SP_H__
 2428 0b48 3A96      		adiw r30,10
 2429 0b4a 0FB6      		in __tmp_reg__,__SREG__
 2430 0b4c F894      		cli
 2431 0b4e FEBF      		out __SP_H__,r31
 2432 0b50 0FBE      		out __SREG__,__tmp_reg__
 2433 0b52 EDBF      		out __SP_L__,r30
 2434 0b54 C701      		movw r24,r14
 2435 0b56 64E6      		ldi r22,lo8(100)
 2436 0b58 70E0      		ldi r23,hi8(100)
 2437 0b5a 0E94 0000 		call HTTP_Post
 2438 0b5e 8FEF      		ldi r24,lo8(-1)
 2439 0b60 9FEF      		ldi r25,hi8(-1)
 2440               	.LVL158:
 2441               	.L145:
 2442               	.LBB155:
 2443               	.LBB154:
 2444               	.LBB153:
 2445               	.LBB152:
 2446               	.LM310:
 2447 0b62 F801      		movw r30,r16
 2448               	.LVL159:
 2449               	/* #APP */
 2450               	 ;  105 "c:/winavr-20100110/lib/gcc/../../avr/include/util/delay_basic.h" 1
 2451 0b64 3197      		1: sbiw r30,1
 2452 0b66 01F4      		brne 1b
 2453               	 ;  0 "" 2
 2454               	/* #NOAPP */
 2455               	.LBE152:
 2456               	.LBE153:
 2457               	.LM311:
 2458 0b68 0197      		sbiw r24,1
 2459               	.LM312:
 2460 0b6a 01F4      		brne .L145
 2461               	.LBE154:
 2462               	.LBE155:
 2463               	.LBE160:
 2464               	.LM313:
 2465 0b6c 81E0      		ldi r24,lo8(1)
 2466               	.LVL160:
 2467 0b6e 60E0      		ldi r22,lo8(0)
 2468 0b70 40E0      		ldi r20,lo8(.LC40)
 2469 0b72 50E0      		ldi r21,hi8(.LC40)
 2470 0b74 0E94 0000 		call LCD_String_xy
 2471               	.LVL161:
 2472               	.LM314:
 2473 0b78 8091 0000 		lds r24,GGA_Pointers
 2474 0b7c 90E0      		ldi r25,lo8(0)
 2475 0b7e 0E94 0000 		call get_latitude
 2476               	.LM315:
 2477 0b82 80E0      		ldi r24,lo8(degrees_buffer)
 2478 0b84 90E0      		ldi r25,hi8(degrees_buffer)
 2479 0b86 0E94 0000 		call LCD_String
 2480               	.LM316:
 2481 0b8a D601      		movw r26,r12
 2482 0b8c E32D      		mov r30,r3
 2483 0b8e 1D92      		st X+,__zero_reg__
 2484 0b90 EA95      	        dec r30
 2485 0b92 01F4      		brne .-6
 2486               	.LM317:
 2487 0b94 8091 0000 		lds r24,Latitude_Buffer
 2488 0b98 8823      		tst r24
 2489 0b9a 01F0      		breq .L146
 2490               	.LM318:
 2491 0b9c 82E0      		ldi r24,lo8(2)
 2492 0b9e 60E0      		ldi r22,lo8(0)
 2493 0ba0 40E0      		ldi r20,lo8(.LC41)
 2494 0ba2 50E0      		ldi r21,hi8(.LC41)
 2495 0ba4 0E94 0000 		call LCD_String_xy
 2496               	.LM319:
 2497 0ba8 8091 0000 		lds r24,GGA_Pointers+2
 2498 0bac 90E0      		ldi r25,lo8(0)
 2499 0bae 0E94 0000 		call get_longitude
 2500               	.LM320:
 2501 0bb2 80E0      		ldi r24,lo8(degrees_buffer)
 2502 0bb4 90E0      		ldi r25,hi8(degrees_buffer)
 2503 0bb6 0E94 0000 		call LCD_String
 2504               	.LM321:
 2505 0bba D601      		movw r26,r12
 2506 0bbc E32D      		mov r30,r3
 2507 0bbe 1D92      		st X+,__zero_reg__
 2508 0bc0 EA95      	        dec r30
 2509 0bc2 01F4      		brne .-6
 2510               	.L146:
 2511 0bc4 8FEF      		ldi r24,lo8(-1)
 2512 0bc6 9FEF      		ldi r25,hi8(-1)
 2513               	.LVL162:
 2514               	.L147:
 2515               	.LBB161:
 2516               	.LBB162:
 2517               	.LBB163:
 2518               	.LBB164:
 2519               	.LM322:
 2520 0bc8 F801      		movw r30,r16
 2521               	.LVL163:
 2522               	/* #APP */
 2523               	 ;  105 "c:/winavr-20100110/lib/gcc/../../avr/include/util/delay_basic.h" 1
 2524 0bca 3197      		1: sbiw r30,1
 2525 0bcc 01F4      		brne 1b
 2526               	 ;  0 "" 2
 2527               	/* #NOAPP */
 2528               	.LBE164:
 2529               	.LBE163:
 2530               	.LM323:
 2531 0bce 0197      		sbiw r24,1
 2532               	.LM324:
 2533 0bd0 01F4      		brne .L147
 2534 0bd2 20E1      		ldi r18,lo8(10000)
 2535 0bd4 37E2      		ldi r19,hi8(10000)
 2536               	.LVL164:
 2537 0bd6 00C0      		rjmp .L143
 2538               	.LBE162:
 2539               	.LBE161:
 2540               	.LFE41:
 2542               	.global	IsItGGAString
 2543               	.global	IsItGGAString
 2544               		.section .bss
 2547               	IsItGGAString:
 2548 0000 00        		.skip 1,0
 2549               	.global	CRLF_COUNT
 2550               	.global	CRLF_COUNT
 2553               	CRLF_COUNT:
 2554 0001 00        		.skip 1,0
 2555               	.global	Counter
 2556               	.global	Counter
 2559               	Counter:
 2560 0002 0000      		.skip 2,0
 2561               	.global	TimeOut
 2562               	.global	TimeOut
 2565               	TimeOut:
 2566 0004 0000 0000 		.skip 4,0
 2567               		.lcomm CRLF_FOUND.1823,1
 2568               		.lcomm CRLF_BUF.1822,2
 2569               		.comm Latitude_Buffer,15,1
 2570               		.comm Longitude_Buffer,15,1
 2571               		.comm degrees_buffer,20,1
 2572               		.comm GGA_Buffer,150,1
 2573               		.comm GGA_Pointers,20,1
 2574               		.comm GGA_CODE,3,1
 2575               		.comm GGA_Index,2,1
 2576               		.comm CommaCounter,2,1
 2577               		.comm Response_Status,1,1
 2578               		.comm RESPONSE_BUFFER,200,1
 2883               	.Letext0:
DEFINED SYMBOLS
                            *ABS*:00000000 last.c
C:\Users\Chamindi\AppData\Local\Temp/cc0Yrmm2.s:2      *ABS*:0000003f __SREG__
C:\Users\Chamindi\AppData\Local\Temp/cc0Yrmm2.s:3      *ABS*:0000003e __SP_H__
C:\Users\Chamindi\AppData\Local\Temp/cc0Yrmm2.s:4      *ABS*:0000003d __SP_L__
C:\Users\Chamindi\AppData\Local\Temp/cc0Yrmm2.s:5      *ABS*:00000034 __CCP__
C:\Users\Chamindi\AppData\Local\Temp/cc0Yrmm2.s:6      *ABS*:00000000 __tmp_reg__
C:\Users\Chamindi\AppData\Local\Temp/cc0Yrmm2.s:7      *ABS*:00000001 __zero_reg__
C:\Users\Chamindi\AppData\Local\Temp/cc0Yrmm2.s:18     .text:00000000 LCD_Command
C:\Users\Chamindi\AppData\Local\Temp/cc0Yrmm2.s:77     .text:0000001c LCD_Char
C:\Users\Chamindi\AppData\Local\Temp/cc0Yrmm2.s:136    .text:00000038 LCD_Init
C:\Users\Chamindi\AppData\Local\Temp/cc0Yrmm2.s:189    .text:0000006a LCD_String
C:\Users\Chamindi\AppData\Local\Temp/cc0Yrmm2.s:218    .text:00000082 LCD_String_xy
C:\Users\Chamindi\AppData\Local\Temp/cc0Yrmm2.s:292    .text:000000c6 LCD_Clear
C:\Users\Chamindi\AppData\Local\Temp/cc0Yrmm2.s:310    .text:000000d4 UART_Init
C:\Users\Chamindi\AppData\Local\Temp/cc0Yrmm2.s:361    .text:00000118 UART_RxChar
C:\Users\Chamindi\AppData\Local\Temp/cc0Yrmm2.s:379    .text:00000120 UART_TxChar
C:\Users\Chamindi\AppData\Local\Temp/cc0Yrmm2.s:398    .text:00000128 USART_SendString
C:\Users\Chamindi\AppData\Local\Temp/cc0Yrmm2.s:432    .text:0000013c __vector_13
C:\Users\Chamindi\AppData\Local\Temp/cc0Yrmm2.s:2559   .bss:00000002 Counter
                            *COM*:000000c8 RESPONSE_BUFFER
                            *COM*:00000002 GGA_Index
                            *COM*:00000002 CommaCounter
C:\Users\Chamindi\AppData\Local\Temp/cc0Yrmm2.s:2547   .bss:00000000 IsItGGAString
                            *COM*:00000014 GGA_Pointers
                            *COM*:00000096 GGA_Buffer
                            *COM*:00000003 GGA_CODE
C:\Users\Chamindi\AppData\Local\Temp/cc0Yrmm2.s:578    .text:00000244 Buffer_Flush
C:\Users\Chamindi\AppData\Local\Temp/cc0Yrmm2.s:605    .text:0000025c GetResponseBody
C:\Users\Chamindi\AppData\Local\Temp/cc0Yrmm2.s:741    .text:00000320 Read_Response
C:\Users\Chamindi\AppData\Local\Temp/cc0Yrmm2.s:2565   .bss:00000004 TimeOut
C:\Users\Chamindi\AppData\Local\Temp/cc0Yrmm2.s:2553   .bss:00000001 CRLF_COUNT
                            *COM*:00000001 Response_Status
                             .bss:00000008 CRLF_FOUND.1823
C:\Users\Chamindi\AppData\Local\Temp/cc0Yrmm2.s:2567   .bss:00000009 CRLF_BUF.1822
C:\Users\Chamindi\AppData\Local\Temp/cc0Yrmm2.s:987    .text:00000492 Start_Read_Response
C:\Users\Chamindi\AppData\Local\Temp/cc0Yrmm2.s:1009   .text:000004a6 WaitForExpectedResponse
C:\Users\Chamindi\AppData\Local\Temp/cc0Yrmm2.s:1084   .text:000004ec HTTP_Read
C:\Users\Chamindi\AppData\Local\Temp/cc0Yrmm2.s:1195   .text:0000059a HTTP_Action
C:\Users\Chamindi\AppData\Local\Temp/cc0Yrmm2.s:1238   .text:000005ba HTTP_Save
C:\Users\Chamindi\AppData\Local\Temp/cc0Yrmm2.s:1264   .text:000005cc HTTP_Connected
C:\Users\Chamindi\AppData\Local\Temp/cc0Yrmm2.s:1291   .text:000005e4 HTTP_Terminate
C:\Users\Chamindi\AppData\Local\Temp/cc0Yrmm2.s:1315   .text:000005f6 HTTP_Init
C:\Users\Chamindi\AppData\Local\Temp/cc0Yrmm2.s:1335   .text:00000608 SIM900HTTP_Init
C:\Users\Chamindi\AppData\Local\Temp/cc0Yrmm2.s:1371   .text:00000612 SIM900HTTP_Connect
C:\Users\Chamindi\AppData\Local\Temp/cc0Yrmm2.s:1491   .text:000006d2 HTTP_Parameter
C:\Users\Chamindi\AppData\Local\Temp/cc0Yrmm2.s:1546   .text:00000714 HTTP_SetPost_json
C:\Users\Chamindi\AppData\Local\Temp/cc0Yrmm2.s:1568   .text:00000722 HTTP_SetURL
C:\Users\Chamindi\AppData\Local\Temp/cc0Yrmm2.s:1596   .text:0000072e HTTP_get
C:\Users\Chamindi\AppData\Local\Temp/cc0Yrmm2.s:1651   .text:0000077a SendATandExpectResponse
C:\Users\Chamindi\AppData\Local\Temp/cc0Yrmm2.s:1693   .text:00000798 SIM900HTTP_Start
C:\Users\Chamindi\AppData\Local\Temp/cc0Yrmm2.s:1751   .text:000007d8 HTTP_Data
C:\Users\Chamindi\AppData\Local\Temp/cc0Yrmm2.s:1867   .text:00000892 HTTP_Post
C:\Users\Chamindi\AppData\Local\Temp/cc0Yrmm2.s:1937   .text:000008f0 convert_to_degrees
                            *COM*:00000014 degrees_buffer
C:\Users\Chamindi\AppData\Local\Temp/cc0Yrmm2.s:2007   .text:0000096a get_longitude
                            *COM*:0000000f Longitude_Buffer
C:\Users\Chamindi\AppData\Local\Temp/cc0Yrmm2.s:2088   .text:000009b4 get_latitude
                            *COM*:0000000f Latitude_Buffer
C:\Users\Chamindi\AppData\Local\Temp/cc0Yrmm2.s:2202   .text:00000a10 main

UNDEFINED SYMBOLS
__udivmodsi4
strncpy
memcpy
strncmp
memset
strstr
sprintf
atof
__divsf3
__fixsfsi
__floatsisf
__subsf3
__addsf3
dtostrf
__do_copy_data
__do_clear_bss
